; esp32 bootrom disassembly
;
; This is the result when starting the disassembler at the reset
;  address (0x40000400) and disassembling everything accessible
;  by jumps, branches, and calls.
;
;  This is only about 4 percent of the ROM, but it seems
;  interesting to show this all by itself since this may
;  contain just the code executed on startup.
;
; This would be the first thing to study,
;  and it is a worthy subject in and of itself.
; This preliminary disassembly will likely need to be augmented.
; There is every chance that thing like jump tables may lead
; to other parts of the ROM.
;
; 5-13-2018  Tom Trebisky
;
;  The output below still has bugs and issues -- beware !!

40000000 to 400003ff  --------- Unknown territory !!!
40000400:	061300        	j	0x40000450
40000403 to 40000403  --------- Unknown territory !!!
40000404:	0000abab	; l32r
40000408:	3ff00038	; l32r
4000040c:	7fffffff	; l32r
40000410:	00000000	; l32r
40000414:	40000000	; l32r
40000418:	2222211f	; l32r
4000041c:	e0000000	; l32r
40000420:	400004c3	; l32r
40000424:	4000d4f8	; l32r
40000428:	4000d5c8	; l32r
4000042c:	40000954	; l32r
40000430:	40000a28	; l32r
40000434:	40000af8	; l32r
40000438:	3ffe0648	; l32r
4000043c:	40000c68	; l32r
40000440:	3ffe064c	; l32r
40000444 to 4000044f  --------- Unknown territory !!!
40000450:	02a000        	movi	a0, 0
40000453:	00e413        	wsr.intenable	a0
40000456:	20eb03        	rsr.prid	a2
40000459:	31eaff        	l32r	a3, 0x40000404	; ( 0x0000abab )
4000045c:	379211        	bne	a2, a3, 0x40000471
4000045f:	31eaff        	l32r	a3, 0x40000408	; ( 0x3ff00038 )
40000462:	322300        	l32i	a3, a3, 0
40000465:	f77308        	bbci	a3, 31, 0x40000471
40000468:	21e9ff        	l32r	a2, 0x4000040c	; ( 0x7fffffff )
4000046b:	203310        	and	a3, a3, a2
4000046e:	c00300        	callx0	a3
40000471:	21e7ff        	l32r	a2, 0x40000410	; ( 0x00000000 )
40000474:	30eb03        	rsr.prid	a3
40000477:	303074        	extui	a3, a3, 0, 8
4000047a:	8c22      	beqz.n	a2, 0x40000480
4000047c:	cc03      	bnez.n	a3, 0x40000480
4000047e:	0902      	s32i.n	a0, a2, 0
40000480:	21e5ff        	l32r	a2, 0x40000414	; ( 0x40000000 )
40000483:	20e713        	wsr.vecbase	a2
40000486:	1c53      	movi.n	a3, 21
40000488:	306313        	wsr.atomctl	a3
4000048b:	206100        	rsil	a2, 1
4000048e:	21e2ff        	l32r	a2, 0x40000418	; ( 0x2222211f )
40000491:	51e2ff        	l32r	a5, 0x4000041c	; ( 0xe0000000 )
40000494:	61e3ff        	l32r	a6, 0x40000420	; ( 0x400004c3 )
40000497:	0c03      	movi.n	a3, 0
40000499:	7d02      	mov.n	a7, a2
4000049b:	506610        	and	a6, a6, a5
4000049e:	460800        	j	0x400004c3
400004a1 to 400004af  --------- Unknown territory !!!
400004b0:	406350        	witlb	a4, a3
400004b3:	002000        	isync
400004b6:	3df0      	nop.n
400004b8:	3df0      	nop.n
400004ba:	5033c0        	sub	a3, a3, a5
400004bd:	b6b314        	bltui	a3, 16, 0x400004d5
400004c0:	707441        	srli	a7, a7, 4
400004c3:	704034        	extui	a4, a7, 0, 4
400004c6:	6713e6        	beq	a3, a6, 0x400004b0
400004c9:	406350        	witlb	a4, a3
400004cc:	5033c0        	sub	a3, a3, a5
400004cf:	f6b3ed        	bgeui	a3, 16, 0x400004c0
400004d2:	002000        	isync
400004d5:	51d1ff        	l32r	a5, 0x4000041c	; ( 0xe0000000 )
400004d8:	0c03      	movi.n	a3, 0
400004da:	207220        	or	a7, a2, a2
400004dd:	704034        	extui	a4, a7, 0, 4
400004e0:	40e350        	wdtlb	a4, a3
400004e3:	5033c0        	sub	a3, a3, a5
400004e6:	707441        	srli	a7, a7, 4
400004e9:	f6b3f0        	bgeui	a3, 16, 0x400004dd
400004ec:	302000        	dsync
400004ef:	32a001        	movi	a3, 1
400004f2:	206103        	rsr.memctl	a2
400004f5:	302220        	or	a2, a2, a3
400004f8:	206113        	wsr.memctl	a2
400004fb:	41caff        	l32r	a4, 0x40000424	; ( 0x4000d4f8 )
400004fe:	51caff        	l32r	a5, 0x40000428	; ( 0x4000d5c8 )
40000501:	6804      	l32i.n	a6, a4, 0
40000503:	7814      	l32i.n	a7, a4, 4
40000505:	8824      	l32i.n	a8, a4, 8
40000507:	2834      	l32i.n	a2, a4, 12
40000509:	261208        	beqi	a2, 1, 0x40000515
4000050c:	20eb03        	rsr.prid	a2
4000050f:	31bdff        	l32r	a3, 0x40000404	; ( 0x0000abab )
40000512:	37120a        	beq	a2, a3, 0x40000520
40000515:	2808      	l32i.n	a2, a8, 0
40000517:	2906      	s32i.n	a2, a6, 0
40000519:	4b66      	addi.n	a6, a6, 4
4000051b:	4b88      	addi.n	a8, a8, 4
4000051d:	7736f4        	bltu	a6, a7, 0x40000515
40000520:	42c410        	addi	a4, a4, 16
40000523:	5734da        	bltu	a4, a5, 0x40000501
40000526:	002000        	isync
40000529:	0c11      	movi.n	a1, 1
4000052b:	104913        	wsr.windowstart	a1
4000052e:	004813        	wsr.windowbase	a0
40000531:	102000        	rsync
40000534:	0c00      	movi.n	a0, 0
40000536:	41bdff        	l32r	a4, 0x4000042c	; ( 0x40000954 )
40000539:	40d213        	wsr.excsave2	a4
4000053c:	41bdff        	l32r	a4, 0x40000430	; ( 0x40000a28 )
4000053f:	40d313        	wsr.excsave3	a4
40000542:	41bcff        	l32r	a4, 0x40000434	; ( 0x40000af8 )
40000545:	40d413        	wsr.excsave4	a4
40000548:	51bcff        	l32r	a5, 0x40000438	; ( 0x3ffe0648 )
4000054b:	426500        	s32i	a4, a5, 0
4000054e:	41bbff        	l32r	a4, 0x4000043c	; ( 0x40000c68 )
40000551:	40d513        	wsr.excsave5	a4
40000554:	51bbff        	l32r	a5, 0x40000440	; ( 0x3ffe064c )
40000557:	426500        	s32i	a4, a5, 0
4000055a:	851a00        	call0	0x40000704
4000055d:	000000        	ill
40000560:	203ffe        	f64iter	a3, a15, a2, 3, 1
40000563:	3f          	.byte 0x3f
40000564:	200004        	extui	a0, a2, 0, 1
40000567:	00d0d5        	extui	a13, a0, 16, 14
4000056a:	00406c        	lsi	f0, a0, 0x1b0
4000056d:	d60040        	bgez	a0, 0x40000971
40000570:	abab      	addi.n	a10, a11, 10
40000572:	0000d4        	extui	a0, a0, 0, 14
40000575:	bf          	.byte 0xbf
40000576:	004024        	extui	a4, a0, 0, 3
40000579:	c00040        	lsi	f12, a0, 0x100
4000057c:	e80d      	l32i.n	a14, a13, 0
4000057e:	004048        	ssx	f4, a0, a0
40000581:	05fe3f        	call0	0x40040564
40000584:	4804      	l32i.n	a4, a4, 0
40000586:	fe          	.byte 0xfe
40000587:	3f          	.byte 0x3f
40000588:	230005        	lsi	f2, a0, 20
4000058b:	000700        	lsi	f0, a7, 0
4000058e:	008005        	extui	a8, a0, 16, 1
40000591:	000000        	ill
40000594:	000000        	ill
40000597:	c05006        	lsi	f12, a0, 24
4000059a:	fe          	.byte 0xfe
4000059b:	3f          	.byte 0x3f
4000059c:	000000        	ill
4000059f:	805806        	lsi	f8, a8, 24
400005a2:	fe          	.byte 0xfe
400005a3:	3f          	.byte 0x3f
400005a4:	34c000        	lsi	f3, a0, 0
400005a7:	400000        	lsi	f4, a0, 0
400005aa:	3800      	l32i.n	a3, a0, 0
400005ac:	190a      	s32i.n	a1, a10, 0
400005ae:	004000        	break	0, 0
400005b1:	88c0      	l32i.n	a8, a0, 48
400005b3:	28ea      	l32i.n	a2, a10, 56
400005b5:	0a00      	add.n	a0, a0, a0
400005b7:	40600c        	lsi	f4, a0, 48
400005ba:	fe          	.byte 0xfe
400005bb:	3f          	.byte 0x3f
400005bc:	4806      	l32i.n	a4, a6, 0
400005be:	fe          	.byte 0xfe
400005bf:	3f          	.byte 0x3f
400005c0:	240005        	lsi	f2, a0, 20
400005c3:	000000        	ill
400005c6:	0053c0        	sub	a5, a3, a0
400005c9:	11fe3f        	l32r	a1, 0x3ffd05c4	; ( 0xc15338fd )
400005cc:	4c06      	movi.n	a6, 64
400005ce:	fe          	.byte 0xfe
400005cf:	3f          	.byte 0x3f
400005d0:	250005        	call8	0x400055d4
400005d3:	000000        	ill
400005d6:	018400        	l32r	a0, 0x3ffc07e8	; ( 0xc0a1ca00 )
400005d9:	f00000        	callx12	a0
400005dc:	d4c2f9        	lsi	f13, a2, 0x3e4
400005df:	3f          	.byte 0x3f
400005e0:	2460f9        	lsi	f2, a0, 0x3e4
400005e3:	3f          	.byte 0x3f
400005e4:	0060f9        	lsi	f0, a0, 0x3e4
400005e7:	3f          	.byte 0x3f
400005e8:	5063f9        	lsi	f5, a3, 0x3e4
400005eb:	3f          	.byte 0x3f
400005ec:	0e          	.byte 0xe
400005ed:	330000        	lsi	f3, a0, 0
400005f0:	cdab      	lsi	f12, a11, 44
400005f2:	ff          	.byte 0xff
400005f3:	ff          	.byte 0xff
400005f4:	341200        	lsi	f3, a2, 0
400005f7:	006de6        	lsi	f0, a13, 0x398
400005fa:	ff          	.byte 0xff
400005fb:	ff          	.byte 0xff
400005fc:	ecde      	bnez.n	a14, 0x4000062d
400005fe:	ff          	.byte 0xff
400005ff:	ff          	.byte 0xff
40000600:	010000        	l32r	a0, 0x3ffc0600	; ( 0xc5064200 )
40000603:	000000        	ill
40000606:	00002d        	lsi	f0, a0, 180
40000609:	7f          	.byte 0x7f
4000060a:	954c2d        	call4	0x4002dad4
4000060d:	f45158        	mula.da.ll.lddec	m1, a1, m1, a15
40000610:	ff          	.byte 0xff
40000611:	ff          	.byte 0xff
40000612:	ff          	.byte 0xff
40000613:	7f          	.byte 0x7f
40000614:	875934        	bbc	a9, a8, 0x4000064c
40000617:	125f0b        	s16i	a1, a15, 22
4000061a:	4e          	.byte 0x4e
4000061b:	83e30c        	lsi	f8, a3, 48
4000061e:	fe          	.byte 0xfe
4000061f:	ff          	.byte 0xff
40000620:	a74100        	ball	a1, a10, 0x40000624
40000623:	00ecf4        	extui	a14, a0, 12, 16
40000626:	ff          	.byte 0xff
40000627:	ff          	.byte 0xff
40000628:	ff          	.byte 0xff
40000629:	ef          	.byte 0xef
4000062a:	ff          	.byte 0xff
4000062b:	ff          	.byte 0xff
4000062c:	001000        	movsp	a0, a0
4000062f:	00ff00        	lsi	f0, a15, 0
40000632:	000000        	ill
40000635:	ff          	.byte 0xff
40000636:	000000        	ill
40000639:	00ff00        	lsi	f0, a15, 0
4000063c:	000000        	ill
4000063f:	ff          	.byte 0xff
40000640:	404040        	lsi	f4, a0, 0x100
40000643:	405462        	lsi	f4, a4, 0x188
40000646:	f93f      	s32i.n	a15, a15, 12
40000648:	1f          	.byte 0x1f
40000649:	85eb51        	call0	0x40052504
4000064c:	9c60      	beqz.n	a0, 0x40000666
4000064e:	f93f      	s32i.n	a15, a15, 12
40000650:	932449        	lsi	f9, a4, 0x124
40000653:	92ffff        	s32ri	a9, a15, 0x3fc
40000656:	ff          	.byte 0xff
40000657:	3f          	.byte 0x3f
40000658:	805101        	slli	a5, a1, 24
4000065b:	0080e0        	subx4	a8, a0, a0
4000065e:	fa3f      	add.n	a3, a15, a15
40000660:	a6c4f9        	blti	a4, 32, 0x4000065d
40000663:	3f          	.byte 0x3f
40000664:	a0e0fa        	rsqrt0.s	f14, f0
40000667:	3f          	.byte 0x3f
40000668:	a4e0fa        	lsi	f10, a0, 0x3e8
4000066b:	3f          	.byte 0x3f
4000066c:	30e0fa        	const.s	f14, 0
4000066f:	3f          	.byte 0x3f
40000670:	a9c4      	s32i.n	a10, a4, 48
40000672:	f93f      	s32i.n	a15, a15, 12
40000674:	84e0fa        	lsi	f8, a0, 0x3e8
40000677:	3f          	.byte 0x3f
40000678:	adc4      	lsi	f10, a4, 16
4000067a:	f93f      	s32i.n	a15, a15, 12
4000067c:	93e0fa        	lsi	f9, a0, 0x3e8
4000067f:	3f          	.byte 0x3f
40000680:	d0c4f9        	lsi	f13, a4, 0x3e4
40000683:	3f          	.byte 0x3f
40000684:	88e0      	l32i.n	a8, a0, 56
40000686:	fa3f      	add.n	a3, a15, a15
40000688:	f0f1ff        	f64cmph	a15, a1, a15, 15
4000068b:	ff          	.byte 0xff
4000068c:	bcc4      	beqz.n	a4, 0x400006cc
4000068e:	f93f      	s32i.n	a15, a15, 12
40000690:	cf          	.byte 0xcf
40000691:	c4f93f        	lsi	f12, a9, 252
40000694:	ec1f      	bnez.n	a15, 0x400006b9
40000696:	004018        	lsxp	f4, a0, a0
40000699:	110040        	l32r	a1, 0x3ffd069c	; ( 0x00040656 )
4000069c:	501100        	movsp	a5, a1
4000069f:	408411        	slli	a8, a4, 12
400006a2:	0040b8        	lsi	f0, a0, 0x2e0
400006a5:	110040        	l32r	a1, 0x3ffd06a8	; ( 0xfd0eb102 )
400006a8:	b0e0fa        	nexp01.s	f14, f0
400006ab:	3f          	.byte 0x3f
400006ac:	ace0      	beqz.n	a0, 0x400006de
400006ae:	fa3f      	add.n	a3, a15, a15
400006b0:	a8e0      	l32i.n	a10, a0, 56
400006b2:	fa3f      	add.n	a3, a15, a15
400006b4:	481d      	l32i.n	a4, a13, 4
400006b6:	004058        	ssxp	f4, a0, a0
400006b9:	1d00      	mov.n	a1, a0
400006bb:	40701d        	lsi	f4, a0, 116
400006be:	0040b4        	extui	a4, a0, 0, 12
400006c1:	e0fa3f        	f64cmph	a15, a10, a14, 3
400006c4:	38e0      	l32i.n	a3, a0, 56
400006c6:	fa3f      	add.n	a3, a15, a15
400006c8:	b8e0      	l32i.n	a11, a0, 56
400006ca:	fa3f      	add.n	a3, a15, a15
400006cc:	9864      	l32i.n	a9, a4, 24
400006ce:	f93f      	s32i.n	a15, a15, 12
400006d0:	7864      	l32i.n	a7, a4, 24
400006d2:	f93f      	s32i.n	a15, a15, 12
400006d4:	5864      	l32i.n	a5, a4, 24
400006d6:	f93f      	s32i.n	a15, a15, 12
400006d8:	000080        	add	a0, a0, a0
400006db:	7f          	.byte 0x7f
400006dc:	000040        	ssr	a0
400006df:	00ffff        	f64cmph	a15, a15, a0, 15
400006e2:	ff          	.byte 0xff
400006e3:	000000        	ill
400006e6:	f07f00        	sddr32.p	a15
400006e9:	000800        	lsi	f0, a8, 0
400006ec:	ff          	.byte 0xff
400006ed:	ff          	.byte 0xff
400006ee:	1f          	.byte 0x1f
400006ef:	000000        	ill
400006f2:	003844        	extui	a3, a0, 8, 5
400006f5:	65f93f        	call8	0x4004068c
400006f8:	966900        	bltz	a9, 0x40000702
400006fb:	00b4c2        	quou	a11, a4, a0
400006fe:	f93f      	s32i.n	a15, a15, 12
40000700:	1cc0      	movi.n	a0, 28
40000702:	00400c        	lsi	f0, a0, 48
40000705:	001196        	lsi	f0, a1, 0x258
40000708:	ff          	.byte 0xff
40000709:	3196ff        	l32r	a3, 0x40000564	; ( 0x00040020 )
4000070c:	30e613        	wsr.ps	a3
4000070f:	102000        	rsync
40000712:	6195ff        	l32r	a6, 0x40000568	; ( 0x4000d5d0 )
40000715:	7195ff        	l32r	a7, 0x4000056c	; ( 0x4000d66c )
40000718:	0c00      	movi.n	a0, 0
4000071a:	4806      	l32i.n	a4, a6, 0
4000071c:	5816      	l32i.n	a5, a6, 4
4000071e:	3826      	l32i.n	a3, a6, 8
40000720:	261311        	beqi	a3, 1, 0x40000735
40000723:	20eb03        	rsr.prid	a2
40000726:	3192ff        	l32r	a3, 0x40000570	; ( 0x0000abab )
40000729:	37120b        	beq	a2, a3, 0x40000738
4000072c:	460100        	j	0x40000735
40000564:	00040020	; l32r
40000568:	4000d5d0	; l32r
4000056c:	4000d66c	; l32r
40000570:	0000abab	; l32r
40000574:	4000bfd4	; l32r
40000578:	4000c024	; l32r
4000057c:	40000de8	; l32r
40000580:	3ffe0548	; l32r
40000584:	3ffe0448	; l32r
40000588:	230005        	lsi	f2, a0, 20
4000058b:	000700        	lsi	f0, a7, 0
4000058e:	008005        	extui	a8, a0, 16, 1
40000591:	000000        	ill
40000594:	000000        	ill
40000597:	c05006        	lsi	f12, a0, 24
4000059a:	fe          	.byte 0xfe
4000059b:	3f          	.byte 0x3f
4000059c:	000000        	ill
4000059f:	805806        	lsi	f8, a8, 24
400005a2:	fe          	.byte 0xfe
400005a3:	3f          	.byte 0x3f
400005a4:	34c000        	lsi	f3, a0, 0
400005a7:	400000        	lsi	f4, a0, 0
400005aa:	3800      	l32i.n	a3, a0, 0
400005ac:	190a      	s32i.n	a1, a10, 0
400005ae:	004000        	break	0, 0
400005b1:	88c0      	l32i.n	a8, a0, 48
400005b3:	28ea      	l32i.n	a2, a10, 56
400005b5:	0a00      	add.n	a0, a0, a0
400005b7:	40600c        	lsi	f4, a0, 48
400005ba:	fe          	.byte 0xfe
400005bb:	3f          	.byte 0x3f
400005bc:	4806      	l32i.n	a4, a6, 0
400005be:	fe          	.byte 0xfe
400005bf:	3f          	.byte 0x3f
400005c0:	240005        	lsi	f2, a0, 20
400005c3:	000000        	ill
400005c6:	0053c0        	sub	a5, a3, a0
400005c9:	11fe3f        	l32r	a1, 0x3ffd05c4	; ( 0xc15338fd )
400005cc:	4c06      	movi.n	a6, 64
400005ce:	fe          	.byte 0xfe
400005cf:	3f          	.byte 0x3f
400005d0:	250005        	call8	0x400055d4
400005d3:	000000        	ill
400005d6:	018400        	l32r	a0, 0x3ffc07e8	; ( 0xc0a1ca00 )
400005d9:	f00000        	callx12	a0
400005dc:	d4c2f9        	lsi	f13, a2, 0x3e4
400005df:	3f          	.byte 0x3f
400005e0:	2460f9        	lsi	f2, a0, 0x3e4
400005e3:	3f          	.byte 0x3f
400005e4:	0060f9        	lsi	f0, a0, 0x3e4
400005e7:	3f          	.byte 0x3f
400005e8:	5063f9        	lsi	f5, a3, 0x3e4
400005eb:	3f          	.byte 0x3f
400005ec:	0e          	.byte 0xe
400005ed:	330000        	lsi	f3, a0, 0
400005f0:	cdab      	lsi	f12, a11, 44
400005f2:	ff          	.byte 0xff
400005f3:	ff          	.byte 0xff
400005f4:	341200        	lsi	f3, a2, 0
400005f7:	006de6        	lsi	f0, a13, 0x398
400005fa:	ff          	.byte 0xff
400005fb:	ff          	.byte 0xff
400005fc:	ecde      	bnez.n	a14, 0x4000062d
400005fe:	ff          	.byte 0xff
400005ff:	ff          	.byte 0xff
40000600:	010000        	l32r	a0, 0x3ffc0600	; ( 0xc5064200 )
40000603:	000000        	ill
40000606:	00002d        	lsi	f0, a0, 180
40000609:	7f          	.byte 0x7f
4000060a:	954c2d        	call4	0x4002dad4
4000060d:	f45158        	mula.da.ll.lddec	m1, a1, m1, a15
40000610:	ff          	.byte 0xff
40000611:	ff          	.byte 0xff
40000612:	ff          	.byte 0xff
40000613:	7f          	.byte 0x7f
40000614:	875934        	bbc	a9, a8, 0x4000064c
40000617:	125f0b        	s16i	a1, a15, 22
4000061a:	4e          	.byte 0x4e
4000061b:	83e30c        	lsi	f8, a3, 48
4000061e:	fe          	.byte 0xfe
4000061f:	ff          	.byte 0xff
40000620:	a74100        	ball	a1, a10, 0x40000624
40000623:	00ecf4        	extui	a14, a0, 12, 16
40000626:	ff          	.byte 0xff
40000627:	ff          	.byte 0xff
40000628:	ff          	.byte 0xff
40000629:	ef          	.byte 0xef
4000062a:	ff          	.byte 0xff
4000062b:	ff          	.byte 0xff
4000062c:	001000        	movsp	a0, a0
4000062f:	00ff00        	lsi	f0, a15, 0
40000632:	000000        	ill
40000635:	ff          	.byte 0xff
40000636:	000000        	ill
40000639:	00ff00        	lsi	f0, a15, 0
4000063c:	000000        	ill
4000063f:	ff          	.byte 0xff
40000640:	404040        	lsi	f4, a0, 0x100
40000643:	405462        	lsi	f4, a4, 0x188
40000646:	f93f      	s32i.n	a15, a15, 12
40000648:	1f          	.byte 0x1f
40000649:	85eb51        	call0	0x40052504
4000064c:	9c60      	beqz.n	a0, 0x40000666
4000064e:	f93f      	s32i.n	a15, a15, 12
40000650:	932449        	lsi	f9, a4, 0x124
40000653:	92ffff        	s32ri	a9, a15, 0x3fc
40000656:	ff          	.byte 0xff
40000657:	3f          	.byte 0x3f
40000658:	805101        	slli	a5, a1, 24
4000065b:	0080e0        	subx4	a8, a0, a0
4000065e:	fa3f      	add.n	a3, a15, a15
40000660:	a6c4f9        	blti	a4, 32, 0x4000065d
40000663:	3f          	.byte 0x3f
40000664:	a0e0fa        	rsqrt0.s	f14, f0
40000667:	3f          	.byte 0x3f
40000668:	a4e0fa        	lsi	f10, a0, 0x3e8
4000066b:	3f          	.byte 0x3f
4000066c:	30e0fa        	const.s	f14, 0
4000066f:	3f          	.byte 0x3f
40000670:	a9c4      	s32i.n	a10, a4, 48
40000672:	f93f      	s32i.n	a15, a15, 12
40000674:	84e0fa        	lsi	f8, a0, 0x3e8
40000677:	3f          	.byte 0x3f
40000678:	adc4      	lsi	f10, a4, 16
4000067a:	f93f      	s32i.n	a15, a15, 12
4000067c:	93e0fa        	lsi	f9, a0, 0x3e8
4000067f:	3f          	.byte 0x3f
40000680:	d0c4f9        	lsi	f13, a4, 0x3e4
40000683:	3f          	.byte 0x3f
40000684:	88e0      	l32i.n	a8, a0, 56
40000686:	fa3f      	add.n	a3, a15, a15
40000688:	f0f1ff        	f64cmph	a15, a1, a15, 15
4000068b:	ff          	.byte 0xff
4000068c:	bcc4      	beqz.n	a4, 0x400006cc
4000068e:	f93f      	s32i.n	a15, a15, 12
40000690:	cf          	.byte 0xcf
40000691:	c4f93f        	lsi	f12, a9, 252
40000694:	ec1f      	bnez.n	a15, 0x400006b9
40000696:	004018        	lsxp	f4, a0, a0
40000699:	110040        	l32r	a1, 0x3ffd069c	; ( 0x00040656 )
4000069c:	501100        	movsp	a5, a1
4000069f:	408411        	slli	a8, a4, 12
400006a2:	0040b8        	lsi	f0, a0, 0x2e0
400006a5:	110040        	l32r	a1, 0x3ffd06a8	; ( 0xfd0eb102 )
400006a8:	b0e0fa        	nexp01.s	f14, f0
400006ab:	3f          	.byte 0x3f
400006ac:	ace0      	beqz.n	a0, 0x400006de
400006ae:	fa3f      	add.n	a3, a15, a15
400006b0:	a8e0      	l32i.n	a10, a0, 56
400006b2:	fa3f      	add.n	a3, a15, a15
400006b4:	481d      	l32i.n	a4, a13, 4
400006b6:	004058        	ssxp	f4, a0, a0
400006b9:	1d00      	mov.n	a1, a0
400006bb:	40701d        	lsi	f4, a0, 116
400006be:	0040b4        	extui	a4, a0, 0, 12
400006c1:	e0fa3f        	f64cmph	a15, a10, a14, 3
400006c4:	38e0      	l32i.n	a3, a0, 56
400006c6:	fa3f      	add.n	a3, a15, a15
400006c8:	b8e0      	l32i.n	a11, a0, 56
400006ca:	fa3f      	add.n	a3, a15, a15
400006cc:	9864      	l32i.n	a9, a4, 24
400006ce:	f93f      	s32i.n	a15, a15, 12
400006d0:	7864      	l32i.n	a7, a4, 24
400006d2:	f93f      	s32i.n	a15, a15, 12
400006d4:	5864      	l32i.n	a5, a4, 24
400006d6:	f93f      	s32i.n	a15, a15, 12
400006d8:	000080        	add	a0, a0, a0
400006db:	7f          	.byte 0x7f
400006dc:	000040        	ssr	a0
400006df:	00ffff        	f64cmph	a15, a15, a0, 15
400006e2:	ff          	.byte 0xff
400006e3:	000000        	ill
400006e6:	f07f00        	sddr32.p	a15
400006e9:	000800        	lsi	f0, a8, 0
400006ec:	ff          	.byte 0xff
400006ed:	ff          	.byte 0xff
400006ee:	1f          	.byte 0x1f
400006ef:	000000        	ill
400006f2:	003844        	extui	a3, a0, 8, 5
400006f5:	65f93f        	call8	0x4004068c
400006f8:	966900        	bltz	a9, 0x40000702
400006fb:	00b4c2        	quou	a11, a4, a0
400006fe:	f93f      	s32i.n	a15, a15, 12
40000700:	1cc0      	movi.n	a0, 28
40000702:	00400c        	lsi	f0, a0, 48
40000705:	001196        	lsi	f0, a1, 0x258
40000708:	ff          	.byte 0xff
40000709:	3196ff        	l32r	a3, 0x40000564	; ( 0x00040020 )
4000070c:	30e613        	wsr.ps	a3
4000070f:	102000        	rsync
40000712:	6195ff        	l32r	a6, 0x40000568	; ( 0x4000d5d0 )
40000715:	7195ff        	l32r	a7, 0x4000056c	; ( 0x4000d66c )
40000718:	0c00      	movi.n	a0, 0
4000071a:	4806      	l32i.n	a4, a6, 0
4000071c:	5816      	l32i.n	a5, a6, 4
4000071e:	3826      	l32i.n	a3, a6, 8
40000720:	261311        	beqi	a3, 1, 0x40000735
40000723:	20eb03        	rsr.prid	a2
40000726:	3192ff        	l32r	a3, 0x40000570	; ( 0x0000abab )
40000729:	37120b        	beq	a2, a3, 0x40000738
4000072c:	460100        	j	0x40000735
40000594:	c0000000	; l32r
40000598:	3ffe0650	; l32r
4000059c:	80000000	; l32r
400005a0:	3ffe0658	; l32r
400005a4:	34c000        	lsi	f3, a0, 0
400005a7:	400000        	lsi	f4, a0, 0
400005aa:	3800      	l32i.n	a3, a0, 0
400005ac:	190a      	s32i.n	a1, a10, 0
400005ae:	004000        	break	0, 0
400005b1:	88c0      	l32i.n	a8, a0, 48
400005b3:	28ea      	l32i.n	a2, a10, 56
400005b5:	0a00      	add.n	a0, a0, a0
400005b7:	40600c        	lsi	f4, a0, 48
400005ba:	fe          	.byte 0xfe
400005bb:	3f          	.byte 0x3f
400005bc:	4806      	l32i.n	a4, a6, 0
400005be:	fe          	.byte 0xfe
400005bf:	3f          	.byte 0x3f
400005c0:	240005        	lsi	f2, a0, 20
400005c3:	000000        	ill
400005c6:	0053c0        	sub	a5, a3, a0
400005c9:	11fe3f        	l32r	a1, 0x3ffd05c4	; ( 0xc15338fd )
400005cc:	4c06      	movi.n	a6, 64
400005ce:	fe          	.byte 0xfe
400005cf:	3f          	.byte 0x3f
400005d0:	250005        	call8	0x400055d4
400005d3:	000000        	ill
400005d6:	018400        	l32r	a0, 0x3ffc07e8	; ( 0xc0a1ca00 )
400005d9:	f00000        	callx12	a0
400005dc:	d4c2f9        	lsi	f13, a2, 0x3e4
400005df:	3f          	.byte 0x3f
400005e0:	2460f9        	lsi	f2, a0, 0x3e4
400005e3:	3f          	.byte 0x3f
400005e4:	0060f9        	lsi	f0, a0, 0x3e4
400005e7:	3f          	.byte 0x3f
400005e8:	5063f9        	lsi	f5, a3, 0x3e4
400005eb:	3f          	.byte 0x3f
400005ec:	0e          	.byte 0xe
400005ed:	330000        	lsi	f3, a0, 0
400005f0:	cdab      	lsi	f12, a11, 44
400005f2:	ff          	.byte 0xff
400005f3:	ff          	.byte 0xff
400005f4:	341200        	lsi	f3, a2, 0
400005f7:	006de6        	lsi	f0, a13, 0x398
400005fa:	ff          	.byte 0xff
400005fb:	ff          	.byte 0xff
400005fc:	ecde      	bnez.n	a14, 0x4000062d
400005fe:	ff          	.byte 0xff
400005ff:	ff          	.byte 0xff
40000600:	010000        	l32r	a0, 0x3ffc0600	; ( 0xc5064200 )
40000603:	000000        	ill
40000606:	00002d        	lsi	f0, a0, 180
40000609:	7f          	.byte 0x7f
4000060a:	954c2d        	call4	0x4002dad4
4000060d:	f45158        	mula.da.ll.lddec	m1, a1, m1, a15
40000610:	ff          	.byte 0xff
40000611:	ff          	.byte 0xff
40000612:	ff          	.byte 0xff
40000613:	7f          	.byte 0x7f
40000614:	875934        	bbc	a9, a8, 0x4000064c
40000617:	125f0b        	s16i	a1, a15, 22
4000061a:	4e          	.byte 0x4e
4000061b:	83e30c        	lsi	f8, a3, 48
4000061e:	fe          	.byte 0xfe
4000061f:	ff          	.byte 0xff
40000620:	a74100        	ball	a1, a10, 0x40000624
40000623:	00ecf4        	extui	a14, a0, 12, 16
40000626:	ff          	.byte 0xff
40000627:	ff          	.byte 0xff
40000628:	ff          	.byte 0xff
40000629:	ef          	.byte 0xef
4000062a:	ff          	.byte 0xff
4000062b:	ff          	.byte 0xff
4000062c:	001000        	movsp	a0, a0
4000062f:	00ff00        	lsi	f0, a15, 0
40000632:	000000        	ill
40000635:	ff          	.byte 0xff
40000636:	000000        	ill
40000639:	00ff00        	lsi	f0, a15, 0
4000063c:	000000        	ill
4000063f:	ff          	.byte 0xff
40000640:	404040        	lsi	f4, a0, 0x100
40000643:	405462        	lsi	f4, a4, 0x188
40000646:	f93f      	s32i.n	a15, a15, 12
40000648:	1f          	.byte 0x1f
40000649:	85eb51        	call0	0x40052504
4000064c:	9c60      	beqz.n	a0, 0x40000666
4000064e:	f93f      	s32i.n	a15, a15, 12
40000650:	932449        	lsi	f9, a4, 0x124
40000653:	92ffff        	s32ri	a9, a15, 0x3fc
40000656:	ff          	.byte 0xff
40000657:	3f          	.byte 0x3f
40000658:	805101        	slli	a5, a1, 24
4000065b:	0080e0        	subx4	a8, a0, a0
4000065e:	fa3f      	add.n	a3, a15, a15
40000660:	a6c4f9        	blti	a4, 32, 0x4000065d
40000663:	3f          	.byte 0x3f
40000664:	a0e0fa        	rsqrt0.s	f14, f0
40000667:	3f          	.byte 0x3f
40000668:	a4e0fa        	lsi	f10, a0, 0x3e8
4000066b:	3f          	.byte 0x3f
4000066c:	30e0fa        	const.s	f14, 0
4000066f:	3f          	.byte 0x3f
40000670:	a9c4      	s32i.n	a10, a4, 48
40000672:	f93f      	s32i.n	a15, a15, 12
40000674:	84e0fa        	lsi	f8, a0, 0x3e8
40000677:	3f          	.byte 0x3f
40000678:	adc4      	lsi	f10, a4, 16
4000067a:	f93f      	s32i.n	a15, a15, 12
4000067c:	93e0fa        	lsi	f9, a0, 0x3e8
4000067f:	3f          	.byte 0x3f
40000680:	d0c4f9        	lsi	f13, a4, 0x3e4
40000683:	3f          	.byte 0x3f
40000684:	88e0      	l32i.n	a8, a0, 56
40000686:	fa3f      	add.n	a3, a15, a15
40000688:	f0f1ff        	f64cmph	a15, a1, a15, 15
4000068b:	ff          	.byte 0xff
4000068c:	bcc4      	beqz.n	a4, 0x400006cc
4000068e:	f93f      	s32i.n	a15, a15, 12
40000690:	cf          	.byte 0xcf
40000691:	c4f93f        	lsi	f12, a9, 252
40000694:	ec1f      	bnez.n	a15, 0x400006b9
40000696:	004018        	lsxp	f4, a0, a0
40000699:	110040        	l32r	a1, 0x3ffd069c	; ( 0x00040656 )
4000069c:	501100        	movsp	a5, a1
4000069f:	408411        	slli	a8, a4, 12
400006a2:	0040b8        	lsi	f0, a0, 0x2e0
400006a5:	110040        	l32r	a1, 0x3ffd06a8	; ( 0xfd0eb102 )
400006a8:	b0e0fa        	nexp01.s	f14, f0
400006ab:	3f          	.byte 0x3f
400006ac:	ace0      	beqz.n	a0, 0x400006de
400006ae:	fa3f      	add.n	a3, a15, a15
400006b0:	a8e0      	l32i.n	a10, a0, 56
400006b2:	fa3f      	add.n	a3, a15, a15
400006b4:	481d      	l32i.n	a4, a13, 4
400006b6:	004058        	ssxp	f4, a0, a0
400006b9:	1d00      	mov.n	a1, a0
400006bb:	40701d        	lsi	f4, a0, 116
400006be:	0040b4        	extui	a4, a0, 0, 12
400006c1:	e0fa3f        	f64cmph	a15, a10, a14, 3
400006c4:	38e0      	l32i.n	a3, a0, 56
400006c6:	fa3f      	add.n	a3, a15, a15
400006c8:	b8e0      	l32i.n	a11, a0, 56
400006ca:	fa3f      	add.n	a3, a15, a15
400006cc:	9864      	l32i.n	a9, a4, 24
400006ce:	f93f      	s32i.n	a15, a15, 12
400006d0:	7864      	l32i.n	a7, a4, 24
400006d2:	f93f      	s32i.n	a15, a15, 12
400006d4:	5864      	l32i.n	a5, a4, 24
400006d6:	f93f      	s32i.n	a15, a15, 12
400006d8:	000080        	add	a0, a0, a0
400006db:	7f          	.byte 0x7f
400006dc:	000040        	ssr	a0
400006df:	00ffff        	f64cmph	a15, a15, a0, 15
400006e2:	ff          	.byte 0xff
400006e3:	000000        	ill
400006e6:	f07f00        	sddr32.p	a15
400006e9:	000800        	lsi	f0, a8, 0
400006ec:	ff          	.byte 0xff
400006ed:	ff          	.byte 0xff
400006ee:	1f          	.byte 0x1f
400006ef:	000000        	ill
400006f2:	003844        	extui	a3, a0, 8, 5
400006f5:	65f93f        	call8	0x4004068c
400006f8:	966900        	bltz	a9, 0x40000702
400006fb:	00b4c2        	quou	a11, a4, a0
400006fe:	f93f      	s32i.n	a15, a15, 12
40000700:	1cc0      	movi.n	a0, 28
40000702:	00400c        	lsi	f0, a0, 48
40000705:	001196        	lsi	f0, a1, 0x258
40000708:	ff          	.byte 0xff
40000709:	3196ff        	l32r	a3, 0x40000564	; ( 0x00040020 )
4000070c:	30e613        	wsr.ps	a3
4000070f:	102000        	rsync
40000712:	6195ff        	l32r	a6, 0x40000568	; ( 0x4000d5d0 )
40000715:	7195ff        	l32r	a7, 0x4000056c	; ( 0x4000d66c )
40000718:	0c00      	movi.n	a0, 0
4000071a:	4806      	l32i.n	a4, a6, 0
4000071c:	5816      	l32i.n	a5, a6, 4
4000071e:	3826      	l32i.n	a3, a6, 8
40000720:	261311        	beqi	a3, 1, 0x40000735
40000723:	20eb03        	rsr.prid	a2
40000726:	3192ff        	l32r	a3, 0x40000570	; ( 0x0000abab )
40000729:	37120b        	beq	a2, a3, 0x40000738
4000072c:	460100        	j	0x40000735
400005a8:	00380000	; l32r
400005ac:	40000a19	; l32r
400005b0:	0088c0        	sub	a8, a8, a0
400005b3:	28ea      	l32i.n	a2, a10, 56
400005b5:	0a00      	add.n	a0, a0, a0
400005b7:	40600c        	lsi	f4, a0, 48
400005ba:	fe          	.byte 0xfe
400005bb:	3f          	.byte 0x3f
400005bc:	4806      	l32i.n	a4, a6, 0
400005be:	fe          	.byte 0xfe
400005bf:	3f          	.byte 0x3f
400005c0:	240005        	lsi	f2, a0, 20
400005c3:	000000        	ill
400005c6:	0053c0        	sub	a5, a3, a0
400005c9:	11fe3f        	l32r	a1, 0x3ffd05c4	; ( 0xc15338fd )
400005cc:	4c06      	movi.n	a6, 64
400005ce:	fe          	.byte 0xfe
400005cf:	3f          	.byte 0x3f
400005d0:	250005        	call8	0x400055d4
400005d3:	000000        	ill
400005d6:	018400        	l32r	a0, 0x3ffc07e8	; ( 0xc0a1ca00 )
400005d9:	f00000        	callx12	a0
400005dc:	d4c2f9        	lsi	f13, a2, 0x3e4
400005df:	3f          	.byte 0x3f
400005e0:	2460f9        	lsi	f2, a0, 0x3e4
400005e3:	3f          	.byte 0x3f
400005e4:	0060f9        	lsi	f0, a0, 0x3e4
400005e7:	3f          	.byte 0x3f
400005e8:	5063f9        	lsi	f5, a3, 0x3e4
400005eb:	3f          	.byte 0x3f
400005ec:	0e          	.byte 0xe
400005ed:	330000        	lsi	f3, a0, 0
400005f0:	cdab      	lsi	f12, a11, 44
400005f2:	ff          	.byte 0xff
400005f3:	ff          	.byte 0xff
400005f4:	341200        	lsi	f3, a2, 0
400005f7:	006de6        	lsi	f0, a13, 0x398
400005fa:	ff          	.byte 0xff
400005fb:	ff          	.byte 0xff
400005fc:	ecde      	bnez.n	a14, 0x4000062d
400005fe:	ff          	.byte 0xff
400005ff:	ff          	.byte 0xff
40000600:	010000        	l32r	a0, 0x3ffc0600	; ( 0xc5064200 )
40000603:	000000        	ill
40000606:	00002d        	lsi	f0, a0, 180
40000609:	7f          	.byte 0x7f
4000060a:	954c2d        	call4	0x4002dad4
4000060d:	f45158        	mula.da.ll.lddec	m1, a1, m1, a15
40000610:	ff          	.byte 0xff
40000611:	ff          	.byte 0xff
40000612:	ff          	.byte 0xff
40000613:	7f          	.byte 0x7f
40000614:	875934        	bbc	a9, a8, 0x4000064c
40000617:	125f0b        	s16i	a1, a15, 22
4000061a:	4e          	.byte 0x4e
4000061b:	83e30c        	lsi	f8, a3, 48
4000061e:	fe          	.byte 0xfe
4000061f:	ff          	.byte 0xff
40000620:	a74100        	ball	a1, a10, 0x40000624
40000623:	00ecf4        	extui	a14, a0, 12, 16
40000626:	ff          	.byte 0xff
40000627:	ff          	.byte 0xff
40000628:	ff          	.byte 0xff
40000629:	ef          	.byte 0xef
4000062a:	ff          	.byte 0xff
4000062b:	ff          	.byte 0xff
4000062c:	001000        	movsp	a0, a0
4000062f:	00ff00        	lsi	f0, a15, 0
40000632:	000000        	ill
40000635:	ff          	.byte 0xff
40000636:	000000        	ill
40000639:	00ff00        	lsi	f0, a15, 0
4000063c:	000000        	ill
4000063f:	ff          	.byte 0xff
40000640:	404040        	lsi	f4, a0, 0x100
40000643:	405462        	lsi	f4, a4, 0x188
40000646:	f93f      	s32i.n	a15, a15, 12
40000648:	1f          	.byte 0x1f
40000649:	85eb51        	call0	0x40052504
4000064c:	9c60      	beqz.n	a0, 0x40000666
4000064e:	f93f      	s32i.n	a15, a15, 12
40000650:	932449        	lsi	f9, a4, 0x124
40000653:	92ffff        	s32ri	a9, a15, 0x3fc
40000656:	ff          	.byte 0xff
40000657:	3f          	.byte 0x3f
40000658:	805101        	slli	a5, a1, 24
4000065b:	0080e0        	subx4	a8, a0, a0
4000065e:	fa3f      	add.n	a3, a15, a15
40000660:	a6c4f9        	blti	a4, 32, 0x4000065d
40000663:	3f          	.byte 0x3f
40000664:	a0e0fa        	rsqrt0.s	f14, f0
40000667:	3f          	.byte 0x3f
40000668:	a4e0fa        	lsi	f10, a0, 0x3e8
4000066b:	3f          	.byte 0x3f
4000066c:	30e0fa        	const.s	f14, 0
4000066f:	3f          	.byte 0x3f
40000670:	a9c4      	s32i.n	a10, a4, 48
40000672:	f93f      	s32i.n	a15, a15, 12
40000674:	84e0fa        	lsi	f8, a0, 0x3e8
40000677:	3f          	.byte 0x3f
40000678:	adc4      	lsi	f10, a4, 16
4000067a:	f93f      	s32i.n	a15, a15, 12
4000067c:	93e0fa        	lsi	f9, a0, 0x3e8
4000067f:	3f          	.byte 0x3f
40000680:	d0c4f9        	lsi	f13, a4, 0x3e4
40000683:	3f          	.byte 0x3f
40000684:	88e0      	l32i.n	a8, a0, 56
40000686:	fa3f      	add.n	a3, a15, a15
40000688:	f0f1ff        	f64cmph	a15, a1, a15, 15
4000068b:	ff          	.byte 0xff
4000068c:	bcc4      	beqz.n	a4, 0x400006cc
4000068e:	f93f      	s32i.n	a15, a15, 12
40000690:	cf          	.byte 0xcf
40000691:	c4f93f        	lsi	f12, a9, 252
40000694:	ec1f      	bnez.n	a15, 0x400006b9
40000696:	004018        	lsxp	f4, a0, a0
40000699:	110040        	l32r	a1, 0x3ffd069c	; ( 0x00040656 )
4000069c:	501100        	movsp	a5, a1
4000069f:	408411        	slli	a8, a4, 12
400006a2:	0040b8        	lsi	f0, a0, 0x2e0
400006a5:	110040        	l32r	a1, 0x3ffd06a8	; ( 0xfd0eb102 )
400006a8:	b0e0fa        	nexp01.s	f14, f0
400006ab:	3f          	.byte 0x3f
400006ac:	ace0      	beqz.n	a0, 0x400006de
400006ae:	fa3f      	add.n	a3, a15, a15
400006b0:	a8e0      	l32i.n	a10, a0, 56
400006b2:	fa3f      	add.n	a3, a15, a15
400006b4:	481d      	l32i.n	a4, a13, 4
400006b6:	004058        	ssxp	f4, a0, a0
400006b9:	1d00      	mov.n	a1, a0
400006bb:	40701d        	lsi	f4, a0, 116
400006be:	0040b4        	extui	a4, a0, 0, 12
400006c1:	e0fa3f        	f64cmph	a15, a10, a14, 3
400006c4:	38e0      	l32i.n	a3, a0, 56
400006c6:	fa3f      	add.n	a3, a15, a15
400006c8:	b8e0      	l32i.n	a11, a0, 56
400006ca:	fa3f      	add.n	a3, a15, a15
400006cc:	9864      	l32i.n	a9, a4, 24
400006ce:	f93f      	s32i.n	a15, a15, 12
400006d0:	7864      	l32i.n	a7, a4, 24
400006d2:	f93f      	s32i.n	a15, a15, 12
400006d4:	5864      	l32i.n	a5, a4, 24
400006d6:	f93f      	s32i.n	a15, a15, 12
400006d8:	000080        	add	a0, a0, a0
400006db:	7f          	.byte 0x7f
400006dc:	000040        	ssr	a0
400006df:	00ffff        	f64cmph	a15, a15, a0, 15
400006e2:	ff          	.byte 0xff
400006e3:	000000        	ill
400006e6:	f07f00        	sddr32.p	a15
400006e9:	000800        	lsi	f0, a8, 0
400006ec:	ff          	.byte 0xff
400006ed:	ff          	.byte 0xff
400006ee:	1f          	.byte 0x1f
400006ef:	000000        	ill
400006f2:	003844        	extui	a3, a0, 8, 5
400006f5:	65f93f        	call8	0x4004068c
400006f8:	966900        	bltz	a9, 0x40000702
400006fb:	00b4c2        	quou	a11, a4, a0
400006fe:	f93f      	s32i.n	a15, a15, 12
40000700:	1cc0      	movi.n	a0, 28
40000702:	00400c        	lsi	f0, a0, 48
40000705:	001196        	lsi	f0, a1, 0x258
40000708:	ff          	.byte 0xff
40000709:	3196ff        	l32r	a3, 0x40000564	; ( 0x00040020 )
4000070c:	30e613        	wsr.ps	a3
4000070f:	102000        	rsync
40000712:	6195ff        	l32r	a6, 0x40000568	; ( 0x4000d5d0 )
40000715:	7195ff        	l32r	a7, 0x4000056c	; ( 0x4000d66c )
40000718:	0c00      	movi.n	a0, 0
4000071a:	4806      	l32i.n	a4, a6, 0
4000071c:	5816      	l32i.n	a5, a6, 4
4000071e:	3826      	l32i.n	a3, a6, 8
40000720:	261311        	beqi	a3, 1, 0x40000735
40000723:	20eb03        	rsr.prid	a2
40000726:	3192ff        	l32r	a3, 0x40000570	; ( 0x0000abab )
40000729:	37120b        	beq	a2, a3, 0x40000738
4000072c:	460100        	j	0x40000735
4000062c:	00001000	; l32r
40000630:	ff          	.byte 0xff
40000631:	000000        	ill
40000634:	00ff00        	lsi	f0, a15, 0
40000637:	000000        	ill
4000063a:	ff          	.byte 0xff
4000063b:	000000        	ill
4000063e:	00ff40        	nsau	a0, a15
40000641:	404040        	lsi	f4, a0, 0x100
40000644:	5462f9        	lsi	f5, a2, 0x3e4
40000647:	3f          	.byte 0x3f
40000648:	1f          	.byte 0x1f
40000649:	85eb51        	call0	0x40052504
4000064c:	9c60      	beqz.n	a0, 0x40000666
4000064e:	f93f      	s32i.n	a15, a15, 12
40000650:	932449        	lsi	f9, a4, 0x124
40000653:	92ffff        	s32ri	a9, a15, 0x3fc
40000656:	ff          	.byte 0xff
40000657:	3f          	.byte 0x3f
40000658:	805101        	slli	a5, a1, 24
4000065b:	0080e0        	subx4	a8, a0, a0
4000065e:	fa3f      	add.n	a3, a15, a15
40000660:	a6c4f9        	blti	a4, 32, 0x4000065d
40000663:	3f          	.byte 0x3f
40000664:	a0e0fa        	rsqrt0.s	f14, f0
40000667:	3f          	.byte 0x3f
40000668:	a4e0fa        	lsi	f10, a0, 0x3e8
4000066b:	3f          	.byte 0x3f
4000066c:	30e0fa        	const.s	f14, 0
4000066f:	3f          	.byte 0x3f
40000670:	a9c4      	s32i.n	a10, a4, 48
40000672:	f93f      	s32i.n	a15, a15, 12
40000674:	84e0fa        	lsi	f8, a0, 0x3e8
40000677:	3f          	.byte 0x3f
40000678:	adc4      	lsi	f10, a4, 16
4000067a:	f93f      	s32i.n	a15, a15, 12
4000067c:	93e0fa        	lsi	f9, a0, 0x3e8
4000067f:	3f          	.byte 0x3f
40000680:	d0c4f9        	lsi	f13, a4, 0x3e4
40000683:	3f          	.byte 0x3f
40000684:	88e0      	l32i.n	a8, a0, 56
40000686:	fa3f      	add.n	a3, a15, a15
40000688:	f0f1ff        	f64cmph	a15, a1, a15, 15
4000068b:	ff          	.byte 0xff
4000068c:	bcc4      	beqz.n	a4, 0x400006cc
4000068e:	f93f      	s32i.n	a15, a15, 12
40000690:	cf          	.byte 0xcf
40000691:	c4f93f        	lsi	f12, a9, 252
40000694:	ec1f      	bnez.n	a15, 0x400006b9
40000696:	004018        	lsxp	f4, a0, a0
40000699:	110040        	l32r	a1, 0x3ffd069c	; ( 0x00040656 )
4000069c:	501100        	movsp	a5, a1
4000069f:	408411        	slli	a8, a4, 12
400006a2:	0040b8        	lsi	f0, a0, 0x2e0
400006a5:	110040        	l32r	a1, 0x3ffd06a8	; ( 0xfd0eb102 )
400006a8:	b0e0fa        	nexp01.s	f14, f0
400006ab:	3f          	.byte 0x3f
400006ac:	ace0      	beqz.n	a0, 0x400006de
400006ae:	fa3f      	add.n	a3, a15, a15
400006b0:	a8e0      	l32i.n	a10, a0, 56
400006b2:	fa3f      	add.n	a3, a15, a15
400006b4:	481d      	l32i.n	a4, a13, 4
400006b6:	004058        	ssxp	f4, a0, a0
400006b9:	1d00      	mov.n	a1, a0
400006bb:	40701d        	lsi	f4, a0, 116
400006be:	0040b4        	extui	a4, a0, 0, 12
400006c1:	e0fa3f        	f64cmph	a15, a10, a14, 3
400006c4:	38e0      	l32i.n	a3, a0, 56
400006c6:	fa3f      	add.n	a3, a15, a15
400006c8:	b8e0      	l32i.n	a11, a0, 56
400006ca:	fa3f      	add.n	a3, a15, a15
400006cc:	9864      	l32i.n	a9, a4, 24
400006ce:	f93f      	s32i.n	a15, a15, 12
400006d0:	7864      	l32i.n	a7, a4, 24
400006d2:	f93f      	s32i.n	a15, a15, 12
400006d4:	5864      	l32i.n	a5, a4, 24
400006d6:	f93f      	s32i.n	a15, a15, 12
400006d8:	000080        	add	a0, a0, a0
400006db:	7f          	.byte 0x7f
400006dc:	000040        	ssr	a0
400006df:	00ffff        	f64cmph	a15, a15, a0, 15
400006e2:	ff          	.byte 0xff
400006e3:	000000        	ill
400006e6:	f07f00        	sddr32.p	a15
400006e9:	000800        	lsi	f0, a8, 0
400006ec:	ff          	.byte 0xff
400006ed:	ff          	.byte 0xff
400006ee:	1f          	.byte 0x1f
400006ef:	000000        	ill
400006f2:	003844        	extui	a3, a0, 8, 5
400006f5:	65f93f        	call8	0x4004068c
400006f8:	966900        	bltz	a9, 0x40000702
400006fb:	00b4c2        	quou	a11, a4, a0
400006fe:	f93f      	s32i.n	a15, a15, 12
40000700:	1cc0      	movi.n	a0, 28
40000702:	00400c        	lsi	f0, a0, 48
40000705:	001196        	lsi	f0, a1, 0x258
40000708:	ff          	.byte 0xff
40000709:	3196ff        	l32r	a3, 0x40000564	; ( 0x00040020 )
4000070c:	30e613        	wsr.ps	a3
4000070f:	102000        	rsync
40000712:	6195ff        	l32r	a6, 0x40000568	; ( 0x4000d5d0 )
40000715:	7195ff        	l32r	a7, 0x4000056c	; ( 0x4000d66c )
40000718:	0c00      	movi.n	a0, 0
4000071a:	4806      	l32i.n	a4, a6, 0
4000071c:	5816      	l32i.n	a5, a6, 4
4000071e:	3826      	l32i.n	a3, a6, 8
40000720:	261311        	beqi	a3, 1, 0x40000735
40000723:	20eb03        	rsr.prid	a2
40000726:	3192ff        	l32r	a3, 0x40000570	; ( 0x0000abab )
40000729:	37120b        	beq	a2, a3, 0x40000738
4000072c:	460100        	j	0x40000735
40000638:	00ff0000	; l32r
4000063c:	000000        	ill
4000063f:	ff          	.byte 0xff
40000640:	404040        	lsi	f4, a0, 0x100
40000643:	405462        	lsi	f4, a4, 0x188
40000646:	f93f      	s32i.n	a15, a15, 12
40000648:	1f          	.byte 0x1f
40000649:	85eb51        	call0	0x40052504
4000064c:	9c60      	beqz.n	a0, 0x40000666
4000064e:	f93f      	s32i.n	a15, a15, 12
40000650:	932449        	lsi	f9, a4, 0x124
40000653:	92ffff        	s32ri	a9, a15, 0x3fc
40000656:	ff          	.byte 0xff
40000657:	3f          	.byte 0x3f
40000658:	805101        	slli	a5, a1, 24
4000065b:	0080e0        	subx4	a8, a0, a0
4000065e:	fa3f      	add.n	a3, a15, a15
40000660:	a6c4f9        	blti	a4, 32, 0x4000065d
40000663:	3f          	.byte 0x3f
40000664:	a0e0fa        	rsqrt0.s	f14, f0
40000667:	3f          	.byte 0x3f
40000668:	a4e0fa        	lsi	f10, a0, 0x3e8
4000066b:	3f          	.byte 0x3f
4000066c:	30e0fa        	const.s	f14, 0
4000066f:	3f          	.byte 0x3f
40000670:	a9c4      	s32i.n	a10, a4, 48
40000672:	f93f      	s32i.n	a15, a15, 12
40000674:	84e0fa        	lsi	f8, a0, 0x3e8
40000677:	3f          	.byte 0x3f
40000678:	adc4      	lsi	f10, a4, 16
4000067a:	f93f      	s32i.n	a15, a15, 12
4000067c:	93e0fa        	lsi	f9, a0, 0x3e8
4000067f:	3f          	.byte 0x3f
40000680:	d0c4f9        	lsi	f13, a4, 0x3e4
40000683:	3f          	.byte 0x3f
40000684:	88e0      	l32i.n	a8, a0, 56
40000686:	fa3f      	add.n	a3, a15, a15
40000688:	f0f1ff        	f64cmph	a15, a1, a15, 15
4000068b:	ff          	.byte 0xff
4000068c:	bcc4      	beqz.n	a4, 0x400006cc
4000068e:	f93f      	s32i.n	a15, a15, 12
40000690:	cf          	.byte 0xcf
40000691:	c4f93f        	lsi	f12, a9, 252
40000694:	ec1f      	bnez.n	a15, 0x400006b9
40000696:	004018        	lsxp	f4, a0, a0
40000699:	110040        	l32r	a1, 0x3ffd069c	; ( 0x00040656 )
4000069c:	501100        	movsp	a5, a1
4000069f:	408411        	slli	a8, a4, 12
400006a2:	0040b8        	lsi	f0, a0, 0x2e0
400006a5:	110040        	l32r	a1, 0x3ffd06a8	; ( 0xfd0eb102 )
400006a8:	b0e0fa        	nexp01.s	f14, f0
400006ab:	3f          	.byte 0x3f
400006ac:	ace0      	beqz.n	a0, 0x400006de
400006ae:	fa3f      	add.n	a3, a15, a15
400006b0:	a8e0      	l32i.n	a10, a0, 56
400006b2:	fa3f      	add.n	a3, a15, a15
400006b4:	481d      	l32i.n	a4, a13, 4
400006b6:	004058        	ssxp	f4, a0, a0
400006b9:	1d00      	mov.n	a1, a0
400006bb:	40701d        	lsi	f4, a0, 116
400006be:	0040b4        	extui	a4, a0, 0, 12
400006c1:	e0fa3f        	f64cmph	a15, a10, a14, 3
400006c4:	38e0      	l32i.n	a3, a0, 56
400006c6:	fa3f      	add.n	a3, a15, a15
400006c8:	b8e0      	l32i.n	a11, a0, 56
400006ca:	fa3f      	add.n	a3, a15, a15
400006cc:	9864      	l32i.n	a9, a4, 24
400006ce:	f93f      	s32i.n	a15, a15, 12
400006d0:	7864      	l32i.n	a7, a4, 24
400006d2:	f93f      	s32i.n	a15, a15, 12
400006d4:	5864      	l32i.n	a5, a4, 24
400006d6:	f93f      	s32i.n	a15, a15, 12
400006d8:	000080        	add	a0, a0, a0
400006db:	7f          	.byte 0x7f
400006dc:	000040        	ssr	a0
400006df:	00ffff        	f64cmph	a15, a15, a0, 15
400006e2:	ff          	.byte 0xff
400006e3:	000000        	ill
400006e6:	f07f00        	sddr32.p	a15
400006e9:	000800        	lsi	f0, a8, 0
400006ec:	ff          	.byte 0xff
400006ed:	ff          	.byte 0xff
400006ee:	1f          	.byte 0x1f
400006ef:	000000        	ill
400006f2:	003844        	extui	a3, a0, 8, 5
400006f5:	65f93f        	call8	0x4004068c
400006f8:	966900        	bltz	a9, 0x40000702
400006fb:	00b4c2        	quou	a11, a4, a0
400006fe:	f93f      	s32i.n	a15, a15, 12
40000700:	1cc0      	movi.n	a0, 28
40000702:	00400c        	lsi	f0, a0, 48
40000705:	001196        	lsi	f0, a1, 0x258
40000708:	ff          	.byte 0xff
40000709:	3196ff        	l32r	a3, 0x40000564	; ( 0x00040020 )
4000070c:	30e613        	wsr.ps	a3
4000070f:	102000        	rsync
40000712:	6195ff        	l32r	a6, 0x40000568	; ( 0x4000d5d0 )
40000715:	7195ff        	l32r	a7, 0x4000056c	; ( 0x4000d66c )
40000718:	0c00      	movi.n	a0, 0
4000071a:	4806      	l32i.n	a4, a6, 0
4000071c:	5816      	l32i.n	a5, a6, 4
4000071e:	3826      	l32i.n	a3, a6, 8
40000720:	261311        	beqi	a3, 1, 0x40000735
40000723:	20eb03        	rsr.prid	a2
40000726:	3192ff        	l32r	a3, 0x40000570	; ( 0x0000abab )
40000729:	37120b        	beq	a2, a3, 0x40000738
4000072c:	460100        	j	0x40000735
400006e4:	7ff00000	; l32r
400006e8:	000008        	lsx	f0, a0, a0
400006eb:	00ffff        	f64cmph	a15, a15, a0, 15
400006ee:	1f          	.byte 0x1f
400006ef:	000000        	ill
400006f2:	003844        	extui	a3, a0, 8, 5
400006f5:	65f93f        	call8	0x4004068c
400006f8:	966900        	bltz	a9, 0x40000702
400006fb:	00b4c2        	quou	a11, a4, a0
400006fe:	f93f      	s32i.n	a15, a15, 12
40000700:	1cc0      	movi.n	a0, 28
40000702:	00400c        	lsi	f0, a0, 48
40000705:	001196        	lsi	f0, a1, 0x258
40000708:	ff          	.byte 0xff
40000709:	3196ff        	l32r	a3, 0x40000564	; ( 0x00040020 )
4000070c:	30e613        	wsr.ps	a3
4000070f:	102000        	rsync
40000712:	6195ff        	l32r	a6, 0x40000568	; ( 0x4000d5d0 )
40000715:	7195ff        	l32r	a7, 0x4000056c	; ( 0x4000d66c )
40000718:	0c00      	movi.n	a0, 0
4000071a:	4806      	l32i.n	a4, a6, 0
4000071c:	5816      	l32i.n	a5, a6, 4
4000071e:	3826      	l32i.n	a3, a6, 8
40000720:	261311        	beqi	a3, 1, 0x40000735
40000723:	20eb03        	rsr.prid	a2
40000726:	3192ff        	l32r	a3, 0x40000570	; ( 0x0000abab )
40000729:	37120b        	beq	a2, a3, 0x40000738
4000072c:	460100        	j	0x40000735
400006fc:	3ff9c2b4	; l32r
40000700:	4000c01c	; l32r
40000704:	0c00      	movi.n	a0, 0
40000706:	1196ff        	l32r	a1, 0x40000560	; ( 0x3ffe3f20 )
40000709:	3196ff        	l32r	a3, 0x40000564	; ( 0x00040020 )
4000070c:	30e613        	wsr.ps	a3
4000070f:	102000        	rsync
40000712:	6195ff        	l32r	a6, 0x40000568	; ( 0x4000d5d0 )
40000715:	7195ff        	l32r	a7, 0x4000056c	; ( 0x4000d66c )
40000718:	0c00      	movi.n	a0, 0
4000071a:	4806      	l32i.n	a4, a6, 0
4000071c:	5816      	l32i.n	a5, a6, 4
4000071e:	3826      	l32i.n	a3, a6, 8
40000720:	261311        	beqi	a3, 1, 0x40000735
40000723:	20eb03        	rsr.prid	a2
40000726:	3192ff        	l32r	a3, 0x40000570	; ( 0x0000abab )
40000729:	37120b        	beq	a2, a3, 0x40000738
4000072c:	460100        	j	0x40000735
4000072f to 40000730  --------- Unknown territory !!!
40000731:	0904      	s32i.n	a0, a4, 0
40000733:	4b44      	addi.n	a4, a4, 4
40000735:	5734f8        	bltu	a4, a5, 0x40000731
40000738:	cb66      	addi.n	a6, a6, 12
4000073a:	7736dc        	bltu	a6, a7, 0x4000071a
4000073d:	55f806        	call4	0x400076c4
40000740:	0c12      	movi.n	a2, 1
40000742:	005100        	simcall
40000745:	f04100        	break	1, 15
40000748:	06fdff        	j	0x40000740
4000074b to 4000074b  --------- Unknown territory !!!
4000074c:	364100        	entry	a1, 32
4000074f:	3cf8      	movi.n	a8, 63
40000751:	27b803        	bgeu	a8, a2, 0x40000758
40000754:	0c02      	movi.n	a2, 0
40000756:	1df0      	retw.n
40000758:	a18aff        	l32r	a10, 0x40000580	; ( 0x3ffe0548 )
4000075b:	e08211        	slli	a8, a2, 2
4000075e:	ac23      	beqz.n	a3, 0x40000784
40000760:	9185ff        	l32r	a9, 0x40000574	; ( 0x4000bfd4 )
40000763:	8a2a      	add.n	a2, a10, a8
40000765:	222200        	l32i	a2, a2, 0
40000768:	b185ff        	l32r	a11, 0x4000057c	; ( 0x40000de8 )
4000076b:	979305        	bne	a3, a9, 0x40000774
4000076e:	b182ff        	l32r	a11, 0x40000578	; ( 0x4000c024 )
40000771:	903920        	or	a3, a9, a9
40000774:	c184ff        	l32r	a12, 0x40000584	; ( 0x3ffe0448 )
40000777:	8aaa      	add.n	a10, a10, a8
40000779:	8a8c      	add.n	a8, a12, a8
4000077b:	b908      	s32i.n	a11, a8, 0
4000077d:	390a      	s32i.n	a3, a10, 0
4000077f:	9712d1        	beq	a2, a9, 0x40000754
40000782:	1df0      	retw.n
40000784:	8a2a      	add.n	a2, a10, a8
40000786:	2802      	l32i.n	a2, a2, 0
40000788:	917bff        	l32r	a9, 0x40000574	; ( 0x4000bfd4 )
4000078b:	c6f7ff        	j	0x4000076e
4000078e to 40000970  --------- Unknown territory !!!
40000971:	035108        	lsi	f0, a1, 32
40000974:	ff          	.byte 0xff
40000975:	404520        	or	a4, a5, a4
40000978:	404590        	addx2	a4, a5, a4
4000097b:	360102        	entry	a1, 0x100
4000097e:	f06200        	rsil	a15, 2
40000981:	f0e203        	rsr.interrupt	a15
40000984:	c0e403        	rsr.intenable	a12
40000987:	d108ff        	l32r	a13, 0x400005a8	; ( 0x00380000 )
4000098a:	c0ff10        	and	a15, a15, a12
4000098d:	d0ff10        	and	a15, a15, a13
40000990:	e00303        	rsr.sar	a14
40000993:	16ef06        	beqz	a15, 0x40000a05
40000996:	e921      	s32i.n	a14, a1, 8
40000998:	d00203        	rsr.lcount	a13
4000099b:	e00003        	rsr.lbeg	a14
4000099e:	d991      	s32i.n	a13, a1, 36
400009a0:	d00103        	rsr.lend	a13
400009a3:	e9a1      	s32i.n	a14, a1, 40
400009a5:	d9b1      	s32i.n	a13, a1, 44
400009a7:	d01003        	rsr.acclo	a13
400009aa:	e01103        	rsr.acchi	a14
400009ad:	d9c1      	s32i.n	a13, a1, 48
400009af:	e9d1      	s32i.n	a14, a1, 52
400009b1:	f0c060        	neg	a12, a15
400009b4:	f0cc10        	and	a12, a12, a15
400009b7:	c0e313        	wsr.intclear	a12
400009ba:	d1f9fe        	l32r	a13, 0x400005a0	; ( 0x3ffe0658 )
400009bd:	1cfe      	movi.n	a14, 31
400009bf:	c0fc40        	nsau	a12, a12
400009c2:	c0fec0        	sub	a15, a14, a12
400009c5:	f0f060        	neg	a15, a15
400009c8:	f2cf1f        	addi	a15, a15, 31
400009cb:	d0cfb0        	addx8	a12, a15, a13
400009ce:	d80c      	l32i.n	a13, a12, 0
400009d0:	e81c      	l32i.n	a14, a12, 4
400009d2:	10f120        	or	a15, a1, a1
400009d5:	f00d00        	callx12	a13
400009d8:	f0e203        	rsr.interrupt	a15
400009db:	c0e403        	rsr.intenable	a12
400009de:	d1f2fe        	l32r	a13, 0x400005a8	; ( 0x00380000 )
400009e1:	c0ff10        	and	a15, a15, a12
400009e4:	d0ff10        	and	a15, a15, a13
400009e7:	566ffc        	bnez	a15, 0x400009b1
400009ea:	d891      	l32i.n	a13, a1, 36
400009ec:	e8a1      	l32i.n	a14, a1, 40
400009ee:	f8b1      	l32i.n	a15, a1, 44
400009f0:	d00213        	wsr.lcount	a13
400009f3:	e00013        	wsr.lbeg	a14
400009f6:	f00113        	wsr.lend	a15
400009f9:	d8c1      	l32i.n	a13, a1, 48
400009fb:	e8d1      	l32i.n	a14, a1, 52
400009fd:	d01013        	wsr.acclo	a13
40000a00:	e01113        	wsr.acchi	a14
40000a03:	e821      	l32i.n	a14, a1, 8
40000a05:	01e9fe        	l32r	a0, 0x400005ac	; ( 0x40000a19 )
40000a08:	d1e3fe        	l32r	a13, 0x40000594	; ( 0xc0000000 )
40000a0b:	e00313        	wsr.sar	a14
40000a0e:	d00020        	or	a0, a0, a13
40000a11:	000d90        	addx2	a0, a13, a0
40000a14:	e06300        	rsil	a14, 3
40000a17:	1df0      	retw.n
40000a19 to 40002f83  --------- Unknown territory !!!
40002f84:	dfffffff	; l32r
40002f88 to 40003513  --------- Unknown territory !!!
40003514:	00800000	; l32r
40003518 to 400035c7  --------- Unknown territory !!!
400035c8:	f0000000	; l32r
400035cc to 40003793  --------- Unknown territory !!!
40003794:	00002000	; l32r
40003798 to 40003b67  --------- Unknown territory !!!
40003b68:	40000000	; l32r
40003b6c to 40003bcf  --------- Unknown territory !!!
40003bd0:	10000000	; l32r
40003bd4 to 400040ab  --------- Unknown territory !!!
400040ac:	08000000	; l32r
400040b0 to 40004b23  --------- Unknown territory !!!
40004b24:	bfffffff	; l32r
40004b28 to 400055bf  --------- Unknown territory !!!
400055c0:	600060dc	; l32r
400055c4:	600060e0	; l32r
400055c8 to 400055d3  --------- Unknown territory !!!
400055d4:	30b320        	or	a11, a3, a3
400055d7:	822851        	l32i	a8, a8, 0x144
400055da:	20a074        	extui	a10, a2, 0, 8
400055dd:	e00800        	callx8	a8
400055e0:	81f8ff        	l32r	a8, 0x400055c0	; ( 0x600060dc )
400055e3:	91f8ff        	l32r	a9, 0x400055c4	; ( 0x600060e0 )
400055e6:	c02000        	memw
400055e9:	8808      	l32i.n	a8, a8, 0
400055eb:	c02000        	memw
400055ee:	9809      	l32i.n	a9, a9, 0
400055f0:	5805      	l32i.n	a5, a5, 0
400055f2:	1b33      	addi.n	a3, a3, 1
400055f4:	909621        	srai	a9, a9, 6
400055f7:	808621        	srai	a8, a8, 6
400055fa:	3088d2        	quos	a8, a8, a3
400055fd:	522552        	l32i	a5, a5, 0x148
40005600:	3039d2        	quos	a3, a9, a3
40005603:	8904      	s32i.n	a8, a4, 0
40005605:	3914      	s32i.n	a3, a4, 4
40005607:	e00500        	callx8	a5
4000560a:	1df0      	retw.n
4000560c to 40005cdb  --------- Unknown territory !!!
40005cdc:	cccccccd	; l32r
40005ce0 to 4000666b  --------- Unknown territory !!!
4000666c:	3ffe03f8	; l32r
40006670:	3ffe03f4	; l32r
40006674 to 40006683  --------- Unknown territory !!!
40006684:	3ffe01f4	; l32r
40006688 to 400066b7  --------- Unknown territory !!!
400066b8:	3ffe01f0	; l32r
400066bc:	364100        	entry	a1, 32
400066bf:	31feff        	l32r	a3, 0x400066b8	; ( 0x3ffe01f0 )
400066c2:	e50e00        	call8	0x400067b0
400066c5:	822300        	l32i	a8, a3, 0
400066c8:	42a020        	movi	a4, 32
400066cb:	20f840        	nsau	a2, a8
400066ce:	2024c0        	sub	a2, a4, a2
400066d1:	202074        	extui	a2, a2, 0, 8
400066d4:	16d204        	beqz	a2, 0x40006725
400066d7:	41ebff        	l32r	a4, 0x40006684	; ( 0x3ffe01f4 )
400066da:	22c2ff        	addi	a2, a2, -1
400066dd:	c02211        	slli	a2, a2, 4
400066e0:	4a22      	add.n	a2, a2, a4
400066e2:	92020a        	l8ui	a9, a2, 10
400066e5:	4812      	l32i.n	a4, a2, 4
400066e7:	a20208        	l8ui	a10, a2, 8
400066ea:	4049b0        	addx8	a4, a9, a4
400066ed:	1b99      	addi.n	a9, a9, 1
400066ef:	909074        	extui	a9, a9, 0, 8
400066f2:	92420a        	s8i	a9, a2, 10
400066f5:	979a04        	bne	a10, a9, 0x400066fd
400066f8:	0c09      	movi.n	a9, 0
400066fa:	92420a        	s8i	a9, a2, 10
400066fd:	92020b        	l8ui	a9, a2, 11
40006700:	0b99      	addi.n	a9, a9, -1
40006702:	909074        	extui	a9, a9, 0, 8
40006705:	92420b        	s8i	a9, a2, 11
40006708:	ccc9      	bnez.n	a9, 0x40006718
4000670a:	922203        	l32i	a9, a2, 12
4000670d:	a2afff        	movi	a10, -1
40006710:	909a30        	xor	a9, a10, a9
40006713:	808910        	and	a8, a9, a8
40006716:	8903      	s32i.n	a8, a3, 0
40006718:	a50a00        	call8	0x400067c4
4000671b:	2802      	l32i.n	a2, a2, 0
4000671d:	ad04      	mov.n	a10, a4
4000671f:	e00200        	callx8	a2
40006722:	06e7ff        	j	0x400066c2
40006725:	21d1ff        	l32r	a2, 0x4000666c	; ( 0x3ffe03f8 )
40006728:	2802      	l32i.n	a2, a2, 0
4000672a:	8c62      	beqz.n	a2, 0x40006734
4000672c:	81d1ff        	l32r	a8, 0x40006670	; ( 0x3ffe03f4 )
4000672f:	a808      	l32i.n	a10, a8, 0
40006731:	e00200        	callx8	a2
40006734:	250a00        	call8	0x400067d8
40006737:	c6e1ff        	j	0x400066c2
4000673a to 400067ab  --------- Unknown territory !!!
400067ac:	3ffe03fc	; l32r
400067b0:	364100        	entry	a1, 32
400067b3:	806200        	rsil	a8, 2
400067b6:	81fdff        	l32r	a8, 0x400067ac	; ( 0x3ffe03fc )
400067b9:	9808      	l32i.n	a9, a8, 0
400067bb:	1b99      	addi.n	a9, a9, 1
400067bd:	9908      	s32i.n	a9, a8, 0
400067bf:	1df0      	retw.n
400067c1 to 400067c3  --------- Unknown territory !!!
400067c4:	364100        	entry	a1, 32
400067c7:	91f9ff        	l32r	a9, 0x400067ac	; ( 0x3ffe03fc )
400067ca:	8809      	l32i.n	a8, a9, 0
400067cc:	0b88      	addi.n	a8, a8, -1
400067ce:	8909      	s32i.n	a8, a9, 0
400067d0:	cc18      	bnez.n	a8, 0x400067d5
400067d2:	806000        	rsil	a8, 0
400067d5:	1df0      	retw.n
400067d7 to 400067d7  --------- Unknown territory !!!
400067d8:	364100        	entry	a1, 32
400067db:	81f4ff        	l32r	a8, 0x400067ac	; ( 0x3ffe03fc )
400067de:	9808      	l32i.n	a9, a8, 0
400067e0:	0b99      	addi.n	a9, a9, -1
400067e2:	9908      	s32i.n	a9, a8, 0
400067e4:	007000        	waiti	0
400067e7:	1df0      	retw.n
400067e9 to 400067eb  --------- Unknown territory !!!
400067ec:	364100        	entry	a1, 32
400067ef:	ad02      	mov.n	a10, a2
400067f1:	bd03      	mov.n	a11, a3
400067f3:	cd04      	mov.n	a12, a4
400067f5:	e57305        	call8	0x4000bf34
400067f8:	1df0      	retw.n
400067fa to 400067fb  --------- Unknown territory !!!
400067fc:	364100        	entry	a1, 32
400067ff:	ad02      	mov.n	a10, a2
40006801:	a57a05        	call8	0x4000bfac
40006804:	1df0      	retw.n
40006806 to 40006807  --------- Unknown territory !!!
40006808:	364100        	entry	a1, 32
4000680b:	ad02      	mov.n	a10, a2
4000680d:	a57705        	call8	0x4000bf88
40006810:	1df0      	retw.n
40006812 to 40006877  --------- Unknown territory !!!
40006878:	3ffe0400	; l32r
4000687c to 40006887  --------- Unknown territory !!!
40006888:	3ffe0404	; l32r
4000688c to 40006897  --------- Unknown territory !!!
40006898:	3ff00038	; l32r
4000689c to 400068ab  --------- Unknown territory !!!
400068ac:	3f400000	; l32r
400068b0:	ffff0000	; l32r
400068b4:	3ff9e865	; l32r
400068b8:	364100        	entry	a1, 32
400068bb:	621200        	l16ui	a6, a2, 0
400068be:	404074        	extui	a4, a4, 0, 8
400068c1:	564603        	bnez	a6, 0x400068f9
400068c4:	60a620        	or	a10, a6, a6
400068c7:	251f03        	call8	0x40009ab8
400068ca:	60a620        	or	a10, a6, a6
400068cd:	651403        	call8	0x40009a14
400068d0:	d22200        	l32i	a13, a2, 0
400068d3:	71f7ff        	l32r	a7, 0x400068b0	; ( 0xffff0000 )
400068d6:	c1f5ff        	l32r	a12, 0x400068ac	; ( 0x3f400000 )
400068d9:	bd06      	mov.n	a11, a6
400068db:	70dd10        	and	a13, a13, a7
400068de:	4c0e      	movi.n	a14, 64
400068e0:	0c1f      	movi.n	a15, 1
400068e2:	ad06      	mov.n	a10, a6
400068e4:	a5cf02        	call8	0x400095e0
400068e7:	ad06      	mov.n	a10, a6
400068e9:	a51903        	call8	0x40009a84
400068ec:	d802      	l32i.n	a13, a2, 0
400068ee:	a1f1ff        	l32r	a10, 0x400068b4	; ( 0x3ff9e865 )
400068f1:	bd05      	mov.n	a11, a5
400068f3:	70cd10        	and	a12, a13, a7
400068f6:	e54501        	call8	0x40007d54
400068f9:	722200        	l32i	a7, a2, 0
400068fc:	51ecff        	l32r	a5, 0x400068ac	; ( 0x3f400000 )
400068ff:	7060f4        	extui	a6, a7, 0, 16
40006902:	506680        	add	a6, a6, a5
40006905:	626300        	s32i	a6, a3, 0
40006908:	66140d        	bnei	a4, 1, 0x40006919
4000690b:	707064        	extui	a7, a7, 0, 7
4000690e:	cc77      	bnez.n	a7, 0x40006919
40006910:	a2af80        	movi	a10, -128
40006913:	a0a610        	and	a10, a6, a10
40006916:	e51b56        	call8	0x4005cad4
40006919:	3802      	l32i.n	a3, a2, 0
4000691b:	32c310        	addi	a3, a3, 16
4000691e:	3902      	s32i.n	a3, a2, 0
40006920:	1df0      	retw.n
40006922 to 40006923  --------- Unknown territory !!!
40006924:	3ff44038	; l32r
40006928:	3ff9e880	; l32r
4000692c:	3ff9e8a1	; l32r
40006930:	3ff99270	; l32r
40006934:	3ff9e8b8	; l32r
40006938:	3ff9e8c4	; l32r
4000693c:	3ff9e8d8	; l32r
40006940:	3ff9e8ec	; l32r
40006944:	3ff9e8fa	; l32r
40006948:	3ff9e913	; l32r
4000694c:	364101        	entry	a1, 160
4000694f:	326119        	s32i	a3, a1, 100
40006952:	31f4ff        	l32r	a3, 0x40006924	; ( 0x3ff44038 )
40006955:	404074        	extui	a4, a4, 0, 8
40006958:	42611a        	s32i	a4, a1, 104
4000695b:	505074        	extui	a5, a5, 0, 8
4000695e:	c02000        	memw
40006961:	4803      	l32i.n	a4, a3, 0
40006963:	526117        	s32i	a5, a1, 92
40006966:	0c06      	movi.n	a6, 0
40006968:	47e414        	bbsi	a4, 4, 0x40006980
4000696b:	c02000        	memw
4000696e:	4803      	l32i.n	a4, a3, 0
40006970:	1cc3      	movi.n	a3, 28
40006972:	304410        	and	a4, a4, a3
40006975:	42c4f8        	addi	a4, a4, -8
40006978:	0c13      	movi.n	a3, 1
4000697a:	406393        	movnez	a6, a3, a4
4000697d:	606074        	extui	a6, a6, 0, 8
40006980:	32afc0        	movi	a3, -64
40006983:	304210        	and	a4, a2, a3
40006986:	37141f        	beq	a4, a3, 0x400069a9
40006989:	40a420        	or	a10, a4, a4
4000698c:	10b120        	or	a11, a1, a1
4000698f:	c2a040        	movi	a12, 64
40006992:	52a27b        	movi	a5, 0x27b
40006995:	25545c        	call8	0x40062ed8
40006998:	526114        	s32i	a5, a1, 80
4000699b:	3d04      	mov.n	a3, a4
4000699d:	56aa63        	bnez	a10, 0x40006fdb
400069a0:	4082c0        	sub	a8, a2, a4
400069a3:	8a71      	add.n	a7, a1, a8
400069a5:	c60100        	j	0x400069b0
400069a8 to 400069a8  --------- Unknown territory !!!
400069a9:	82c240        	addi	a8, a2, 64
400069ac:	8a71      	add.n	a7, a1, a8
400069ae:	3d04      	mov.n	a3, a4
400069b0:	a20705        	l8ui	a10, a7, 5
400069b3:	b20704        	l8ui	a11, a7, 4
400069b6:	920706        	l8ui	a9, a7, 6
400069b9:	520701        	l8ui	a5, a7, 1
400069bc:	80aa11        	slli	a10, a10, 8
400069bf:	b0aa20        	or	a10, a10, a11
400069c2:	009911        	slli	a9, a9, 16
400069c5:	a09920        	or	a9, a9, a10
400069c8:	526116        	s32i	a5, a1, 88
400069cb:	a20707        	l8ui	a10, a7, 7
400069ce:	520702        	l8ui	a5, a7, 2
400069d1:	80aa01        	slli	a10, a10, 24
400069d4:	526115        	s32i	a5, a1, 84
400069d7:	520703        	l8ui	a5, a7, 3
400069da:	90aa20        	or	a10, a10, a9
400069dd:	52611b        	s32i	a5, a1, 108
400069e0:	a26118        	s32i	a10, a1, 96
400069e3:	52a288        	movi	a5, 0x288
400069e6:	a20700        	l8ui	a10, a7, 0
400069e9:	526114        	s32i	a5, a1, 80
400069ec:	92a0e9        	movi	a9, 233
400069ef:	971a02        	beq	a10, a9, 0x400069f5
400069f2:	467901        	j	0x40006fdb
400069f5:	522117        	l32i	a5, a1, 92
400069f8:	16c50a        	beqz	a5, 0x40006aa8
400069fb:	e5c501        	call8	0x40008658
400069fe:	91c9ff        	l32r	a9, 0x40006924	; ( 0x3ff44038 )
40006a01:	ed0a      	mov.n	a14, a10
40006a03:	c02000        	memw
40006a06:	a809      	l32i.n	a10, a9, 0
40006a08:	5d0e      	mov.n	a5, a14
40006a0a:	ccbe      	bnez.n	a14, 0x40006a19
40006a0c:	1cc9      	movi.n	a9, 28
40006a0e:	90da10        	and	a13, a10, a9
40006a11:	d2cdf8        	addi	a13, a13, -8
40006a14:	0c19      	movi.n	a9, 1
40006a16:	d05983        	moveqz	a5, a9, a13
40006a19:	920708        	l8ui	a9, a7, 8
40006a1c:	a1c3ff        	l32r	a10, 0x40006928	; ( 0x3ff9e880 )
40006a1f:	cd09      	mov.n	a12, a9
40006a21:	bd05      	mov.n	a11, a5
40006a23:	92611f        	s32i	a9, a1, 124
40006a26:	e2611c        	s32i	a14, a1, 112
40006a29:	a53201        	call8	0x40007d54
40006a2c:	e2211c        	l32i	a14, a1, 112
40006a2f:	92211f        	l32i	a9, a1, 124
40006a32:	cc6e      	bnez.n	a14, 0x40006a3c
40006a34:	a2af12        	movi	a10, -238
40006a37:	aaa9      	add.n	a10, a9, a10
40006a39:	564a00        	bnez	a10, 0x40006a41
40006a3c:	2c1a      	movi.n	a10, 33
40006a3e:	973a0c        	bltu	a10, a9, 0x40006a4e
40006a41:	ad09      	mov.n	a10, a9
40006a43:	bd05      	mov.n	a11, a5
40006a45:	92611f        	s32i	a9, a1, 124
40006a48:	25395b        	call8	0x40061ddc
40006a4b:	92211f        	l32i	a9, a1, 124
40006a4e:	ad09      	mov.n	a10, a9
40006a50:	50b520        	or	a11, a5, a5
40006a53:	c2c709        	addi	a12, a7, 9
40006a56:	25425b        	call8	0x40061e78
40006a59:	52211b        	l32i	a5, a1, 108
40006a5c:	0c59      	movi.n	a9, 5
40006a5e:	508034        	extui	a8, a5, 0, 4
40006a61:	522115        	l32i	a5, a1, 84
40006a64:	0c17      	movi.n	a7, 1
40006a66:	909563        	minu	a9, a5, a9
40006a69:	f63801        	bgeui	a8, 3, 0x40006a6e
40006a6c:	2b78      	addi.n	a7, a8, 2
40006a6e:	0c0b      	movi.n	a11, 0
40006a70:	ad07      	mov.n	a10, a7
40006a72:	92611f        	s32i	a9, a1, 124
40006a75:	25155c        	call8	0x40062bc8
40006a78:	0c1b      	movi.n	a11, 1
40006a7a:	ad07      	mov.n	a10, a7
40006a7c:	a5145c        	call8	0x40062bc8
40006a7f:	bd07      	mov.n	a11, a7
40006a81:	0c0a      	movi.n	a10, 0
40006a83:	e5305b        	call8	0x40061d90
40006a86:	bd07      	mov.n	a11, a7
40006a88:	0c1a      	movi.n	a10, 1
40006a8a:	65305b        	call8	0x40061d90
40006a8d:	81a8ff        	l32r	a8, 0x40006930	; ( 0x3ff99270 )
40006a90:	92211f        	l32i	a9, a1, 124
40006a93:	a1a6ff        	l32r	a10, 0x4000692c	; ( 0x3ff9e8a1 )
40006a96:	8099a0        	addx4	a9, a9, a8
40006a99:	b809      	l32i.n	a11, a9, 0
40006a9b:	cd07      	mov.n	a12, a7
40006a9d:	652b01        	call8	0x40007d54
40006aa0:	a22115        	l32i	a10, a1, 84
40006aa3:	bd06      	mov.n	a11, a6
40006aa5:	e5e95b        	call8	0x40062944
40006aa8:	62c210        	addi	a6, a2, 16
40006aab:	72afc0        	movi	a7, -64
40006aae:	707610        	and	a7, a6, a7
40006ab1:	77141b        	beq	a4, a7, 0x40006ad0
40006ab4:	ad07      	mov.n	a10, a7
40006ab6:	bd01      	mov.n	a11, a1
40006ab8:	4c0c      	movi.n	a12, 64
40006aba:	42a2b2        	movi	a4, 0x2b2
40006abd:	a5415c        	call8	0x40062ed8
40006ac0:	426114        	s32i	a4, a1, 80
40006ac3:	3d07      	mov.n	a3, a7
40006ac5:	562a51        	bnez	a10, 0x40006fdb
40006ac8:	7046c0        	sub	a4, a6, a7
40006acb:	060100        	j	0x40006ad3
40006ace to 40006acf  --------- Unknown territory !!!
40006ad0:	4046c0        	sub	a4, a6, a4
40006ad3:	4a41      	add.n	a4, a1, a4
40006ad5:	920409        	l8ui	a9, a4, 9
40006ad8:	a20408        	l8ui	a10, a4, 8
40006adb:	82040a        	l8ui	a8, a4, 10
40006ade:	809911        	slli	a9, a9, 8
40006ae1:	62040b        	l8ui	a6, a4, 11
40006ae4:	a09920        	or	a9, a9, a10
40006ae7:	008811        	slli	a8, a8, 16
40006aea:	908820        	or	a8, a8, a9
40006aed:	806601        	slli	a6, a6, 24
40006af0:	92040d        	l8ui	a9, a4, 13
40006af3:	806620        	or	a6, a6, a8
40006af6:	a2040c        	l8ui	a10, a4, 12
40006af9:	82040e        	l8ui	a8, a4, 14
40006afc:	809911        	slli	a9, a9, 8
40006aff:	b2040f        	l8ui	a11, a4, 15
40006b02:	a09920        	or	a9, a9, a10
40006b05:	008811        	slli	a8, a8, 16
40006b08:	908820        	or	a8, a8, a9
40006b0b:	80bb01        	slli	a11, a11, 24
40006b0e:	80bb20        	or	a11, a11, a8
40006b11:	72c220        	addi	a7, a2, 32
40006b14:	dd0b      	mov.n	a13, a11
40006b16:	d6f613        	bgez	a6, 0x40006c59
40006b19:	92cbf8        	addi	a9, a11, -8
40006b1c:	909034        	extui	a9, a9, 0, 4
40006b1f:	604075        	extui	a4, a6, 16, 8
40006b22:	a184ff        	l32r	a10, 0x40006934	; ( 0x3ff9e8b8 )
40006b25:	56894b        	bnez	a9, 0x40006fe1
40006b28:	b0b4f4        	extui	a11, a11, 4, 16
40006b2b:	c0bb11        	slli	a11, a11, 4
40006b2e:	b2cb20        	addi	a11, a11, 32
40006b31:	2a5b      	add.n	a5, a11, a2
40006b33:	061900        	j	0x40006b9b
40006b36 to 40006b37  --------- Unknown territory !!!
40006b38:	20a710        	and	a10, a7, a2
40006b3b:	a71319        	beq	a3, a10, 0x40006b58
40006b3e:	a0d7c0        	sub	a13, a7, a10
40006b41:	bd01      	mov.n	a11, a1
40006b43:	4c0c      	movi.n	a12, 64
40006b45:	92611f        	s32i	a9, a1, 124
40006b48:	3d0a      	mov.n	a3, a10
40006b4a:	d02180        	add	a2, a1, a13
40006b4d:	a5385c        	call8	0x40062ed8
40006b50:	92211f        	l32i	a9, a1, 124
40006b53:	8c6a      	beqz.n	a10, 0x40006b5d
40006b55:	c61c01        	j	0x40006fcc
40006b58:	30d7c0        	sub	a13, a7, a3
40006b5b:	da21      	add.n	a2, a1, a13
40006b5d:	72c710        	addi	a7, a7, 16
40006b60:	167403        	beqz	a4, 0x40006b9b
40006b63:	82c4ff        	addi	a8, a4, -1
40006b66:	8040f4        	extui	a4, a8, 0, 16
40006b69:	56b900        	bnez	a9, 0x40006b78
40006b6c:	ad02      	mov.n	a10, a2
40006b6e:	e58f5b        	call8	0x4006246c
40006b71:	9d0a      	mov.n	a9, a10
40006b73:	0c0a      	movi.n	a10, 0
40006b75:	904a83        	moveqz	a4, a10, a9
40006b78:	92c9ff        	addi	a9, a9, -1
40006b7b:	9090f4        	extui	a9, a9, 0, 16
40006b7e:	169401        	beqz	a4, 0x40006b9b
40006b81:	82c4ff        	addi	a8, a4, -1
40006b84:	8040f4        	extui	a4, a8, 0, 16
40006b87:	cca9      	bnez.n	a9, 0x40006b95
40006b89:	8ba2      	addi.n	a10, a2, 8
40006b8b:	258e5b        	call8	0x4006246c
40006b8e:	9d0a      	mov.n	a9, a10
40006b90:	0c0a      	movi.n	a10, 0
40006b92:	904a83        	moveqz	a4, a10, a9
40006b95:	92c9ff        	addi	a9, a9, -1
40006b98:	9090f4        	extui	a9, a9, 0, 16
40006b9b:	22afc0        	movi	a2, -64
40006b9e:	579796        	bne	a7, a5, 0x40006b38
40006ba1:	202710        	and	a2, a7, a2
40006ba4:	271315        	beq	a3, a2, 0x40006bbd
40006ba7:	20a220        	or	a10, a2, a2
40006baa:	10b120        	or	a11, a1, a1
40006bad:	4c0c      	movi.n	a12, 64
40006baf:	52a2e2        	movi	a5, 0x2e2
40006bb2:	65325c        	call8	0x40062ed8
40006bb5:	526114        	s32i	a5, a1, 80
40006bb8:	3d02      	mov.n	a3, a2
40006bba:	56da41        	bnez	a10, 0x40006fdb
40006bbd:	3027c0        	sub	a2, a7, a3
40006bc0:	2a21      	add.n	a2, a1, a2
40006bc2:	72c710        	addi	a7, a7, 16
40006bc5:	164400        	beqz	a4, 0x40006bcd
40006bc8:	ad02      	mov.n	a10, a2
40006bca:	258a5b        	call8	0x4006246c
40006bcd:	422117        	l32i	a4, a1, 92
40006bd0:	169404        	beqz	a4, 0x40006c1d
40006bd3:	0c54      	movi.n	a4, 5
40006bd5:	608074        	extui	a8, a6, 0, 8
40006bd8:	605834        	extui	a5, a6, 8, 4
40006bdb:	408863        	minu	a8, a8, a4
40006bde:	0c14      	movi.n	a4, 1
40006be0:	f63501        	bgeui	a5, 3, 0x40006be5
40006be3:	2b45      	addi.n	a4, a5, 2
40006be5:	0c0b      	movi.n	a11, 0
40006be7:	ad04      	mov.n	a10, a4
40006be9:	82611e        	s32i	a8, a1, 120
40006bec:	a5fd5b        	call8	0x40062bc8
40006bef:	0c1b      	movi.n	a11, 1
40006bf1:	ad04      	mov.n	a10, a4
40006bf3:	65fd5b        	call8	0x40062bc8
40006bf6:	bd04      	mov.n	a11, a4
40006bf8:	0c0a      	movi.n	a10, 0
40006bfa:	65195b        	call8	0x40061d90
40006bfd:	bd04      	mov.n	a11, a4
40006bff:	0c1a      	movi.n	a10, 1
40006c01:	e5185b        	call8	0x40061d90
40006c04:	82211e        	l32i	a8, a1, 120
40006c07:	514aff        	l32r	a5, 0x40006930	; ( 0x3ff99270 )
40006c0a:	a148ff        	l32r	a10, 0x4000692c	; ( 0x3ff9e8a1 )
40006c0d:	5088a0        	addx4	a8, a8, a5
40006c10:	b808      	l32i.n	a11, a8, 0
40006c12:	cd04      	mov.n	a12, a4
40006c14:	e51301        	call8	0x40007d54
40006c17:	60a074        	extui	a10, a6, 0, 8
40006c1a:	a5f45b        	call8	0x40062b64
40006c1d:	520209        	l8ui	a5, a2, 9
40006c20:	820208        	l8ui	a8, a2, 8
40006c23:	42020a        	l8ui	a4, a2, 10
40006c26:	805511        	slli	a5, a5, 8
40006c29:	62020b        	l8ui	a6, a2, 11
40006c2c:	805520        	or	a5, a5, a8
40006c2f:	004411        	slli	a4, a4, 16
40006c32:	504420        	or	a4, a4, a5
40006c35:	806601        	slli	a6, a6, 24
40006c38:	52020d        	l8ui	a5, a2, 13
40006c3b:	406620        	or	a6, a6, a4
40006c3e:	82020c        	l8ui	a8, a2, 12
40006c41:	42020e        	l8ui	a4, a2, 14
40006c44:	805511        	slli	a5, a5, 8
40006c47:	d2020f        	l8ui	a13, a2, 15
40006c4a:	805520        	or	a5, a5, a8
40006c4d:	004411        	slli	a4, a4, 16
40006c50:	504420        	or	a4, a4, a5
40006c53:	80dd01        	slli	a13, a13, 24
40006c56:	40dd20        	or	a13, a13, a4
40006c59:	22afc0        	movi	a2, -64
40006c5c:	202710        	and	a2, a7, a2
40006c5f:	271319        	beq	a3, a2, 0x40006c7c
40006c62:	ad02      	mov.n	a10, a2
40006c64:	bd01      	mov.n	a11, a1
40006c66:	4c0c      	movi.n	a12, 64
40006c68:	52a308        	movi	a5, 0x308
40006c6b:	d2611d        	s32i	a13, a1, 116
40006c6e:	a5265c        	call8	0x40062ed8
40006c71:	526114        	s32i	a5, a1, 80
40006c74:	3d02      	mov.n	a3, a2
40006c76:	d2211d        	l32i	a13, a1, 116
40006c79:	56ea35        	bnez	a10, 0x40006fdb
40006c7c:	3087c0        	sub	a8, a7, a3
40006c7f:	8a81      	add.n	a8, a1, a8
40006c81:	92c710        	addi	a9, a7, 16
40006c84:	2d08      	mov.n	a2, a8
40006c86:	42a0ef        	movi	a4, 239
40006c89:	0c05      	movi.n	a5, 0
40006c8b:	86c900        	j	0x40006fb5
40006c8e:	1c0a      	movi.n	a10, 16
40006c90:	50eac0        	sub	a14, a10, a5
40006c93:	a129ff        	l32r	a10, 0x40006938	; ( 0x3ff9e8c4 )
40006c96:	e0e074        	extui	a14, a14, 0, 8
40006c99:	cd0d      	mov.n	a12, a13
40006c9b:	bd06      	mov.n	a11, a6
40006c9d:	82611e        	s32i	a8, a1, 120
40006ca0:	92611f        	s32i	a9, a1, 124
40006ca3:	d2611d        	s32i	a13, a1, 116
40006ca6:	e2611c        	s32i	a14, a1, 112
40006ca9:	a50a01        	call8	0x40007d54
40006cac:	d2211d        	l32i	a13, a1, 116
40006caf:	e2211c        	l32i	a14, a1, 112
40006cb2:	7d06      	mov.n	a7, a6
40006cb4:	82211e        	l32i	a8, a1, 120
40006cb7:	92211f        	l32i	a9, a1, 124
40006cba:	e73d0c        	bltu	a13, a14, 0x40006cca
40006cbd:	0c15      	movi.n	a5, 1
40006cbf:	526115        	s32i	a5, a1, 84
40006cc2:	e0a014        	extui	a10, a14, 0, 2
40006cc5:	acba      	beqz.n	a10, 0x40006cf4
40006cc7:	460300        	j	0x40006cd8
40006cca:	0c06      	movi.n	a6, 0
40006ccc:	626115        	s32i	a6, a1, 84
40006ccf:	d0d074        	extui	a13, a13, 0, 8
40006cd2:	626117        	s32i	a6, a1, 92
40006cd5:	861700        	j	0x40006d37
40006cd8:	0c05      	movi.n	a5, 0
40006cda:	860300        	j	0x40006cec
40006cdd:	5a72      	add.n	a7, a2, a5
40006cdf:	720700        	l8ui	a7, a7, 0
40006ce2:	6aa5      	add.n	a10, a5, a6
40006ce4:	404730        	xor	a4, a7, a4
40006ce7:	724a00        	s8i	a7, a10, 0
40006cea:	1b55      	addi.n	a5, a5, 1
40006cec:	e725ed        	blt	a5, a14, 0x40006cdd
40006cef:	46bd00        	j	0x40006fe8
40006cf2 to 40006cf3  --------- Unknown territory !!!
40006cf4:	164e2f        	beqz	a14, 0x40006fec
40006cf7:	e07241        	srli	a7, a14, 2
40006cfa:	5d02      	mov.n	a5, a2
40006cfc:	060a00        	j	0x40006d28
40006cff to 40006cff  --------- Unknown territory !!!
40006d00:	c20500        	l8ui	a12, a5, 0
40006d03:	b20501        	l8ui	a11, a5, 1
40006d06:	f20502        	l8ui	a15, a5, 2
40006d09:	b0bc30        	xor	a11, a12, a11
40006d0c:	b04430        	xor	a4, a4, a11
40006d0f:	f04430        	xor	a4, a4, a15
40006d12:	f20503        	l8ui	a15, a5, 3
40006d15:	c805      	l32i.n	a12, a5, 0
40006d17:	20b5c0        	sub	a11, a5, a2
40006d1a:	f04430        	xor	a4, a4, a15
40006d1d:	6abb      	add.n	a11, a11, a6
40006d1f:	404074        	extui	a4, a4, 0, 8
40006d22:	c90b      	s32i.n	a12, a11, 0
40006d24:	1baa      	addi.n	a10, a10, 1
40006d26:	4b55      	addi.n	a5, a5, 4
40006d28:	772ad4        	blt	a10, a7, 0x40006d00
40006d2b:	e07711        	slli	a7, a7, 2
40006d2e:	7a22      	add.n	a2, a2, a7
40006d30:	7a76      	add.n	a7, a6, a7
40006d32:	86ad00        	j	0x40006fec
40006d35 to 40006d36  --------- Unknown territory !!!
40006d37:	0c0e      	movi.n	a14, 0
40006d39:	e26112        	s32i	a14, a1, 72
40006d3c:	6d0e      	mov.n	a6, a14
40006d3e:	9077c0        	sub	a7, a7, a9
40006d41:	062200        	j	0x40006dcd
40006d44:	82afc0        	movi	a8, -64
40006d47:	808910        	and	a8, a9, a8
40006d4a:	87132f        	beq	a3, a8, 0x40006d7d
40006d4d:	803820        	or	a3, a8, a8
40006d50:	8089c0        	sub	a8, a9, a8
40006d53:	808180        	add	a8, a1, a8
40006d56:	30a320        	or	a10, a3, a3
40006d59:	bd01      	mov.n	a11, a1
40006d5b:	4c0c      	movi.n	a12, 64
40006d5d:	82611e        	s32i	a8, a1, 120
40006d60:	92611f        	s32i	a9, a1, 124
40006d63:	d2611d        	s32i	a13, a1, 116
40006d66:	f2611c        	s32i	a15, a1, 112
40006d69:	e5165c        	call8	0x40062ed8
40006d6c:	82211e        	l32i	a8, a1, 120
40006d6f:	92211f        	l32i	a9, a1, 124
40006d72:	d2211d        	l32i	a13, a1, 116
40006d75:	f2211c        	l32i	a15, a1, 112
40006d78:	9c5a      	beqz.n	a10, 0x40006d91
40006d7a:	c60100        	j	0x40006d85
40006d7d:	3089c0        	sub	a8, a9, a3
40006d80:	8a81      	add.n	a8, a1, a8
40006d82:	c60200        	j	0x40006d91
40006d85:	a1edfe        	l32r	a10, 0x4000693c	; ( 0x3ff9e8d8 )
40006d88:	b2a33b        	movi	a11, 0x33b
40006d8b:	a5fc00        	call8	0x40007d54
40006d8e:	469200        	j	0x40006fdb
40006d91:	b22800        	l32i	a11, a8, 0
40006d94:	a22801        	l32i	a10, a8, 4
40006d97:	92c910        	addi	a9, a9, 16
40006d9a:	a0ab30        	xor	a10, a11, a10
40006d9d:	b22112        	l32i	a11, a1, 72
40006da0:	1c0c      	movi.n	a12, 16
40006da2:	b0aa30        	xor	a10, a10, a11
40006da5:	b828      	l32i.n	a11, a8, 8
40006da7:	1b66      	addi.n	a6, a6, 1
40006da9:	b0aa30        	xor	a10, a10, a11
40006dac:	b838      	l32i.n	a11, a8, 12
40006dae:	82611e        	s32i	a8, a1, 120
40006db1:	b0aa30        	xor	a10, a10, a11
40006db4:	a26112        	s32i	a10, a1, 72
40006db7:	bd08      	mov.n	a11, a8
40006db9:	ad0f      	mov.n	a10, a15
40006dbb:	92611f        	s32i	a9, a1, 124
40006dbe:	d2611d        	s32i	a13, a1, 116
40006dc1:	655005        	call8	0x4000c2c8
40006dc4:	d2211d        	l32i	a13, a1, 116
40006dc7:	92211f        	l32i	a9, a1, 124
40006dca:	82211e        	l32i	a8, a1, 120
40006dcd:	a22117        	l32i	a10, a1, 92
40006dd0:	9af7      	add.n	a15, a7, a9
40006dd2:	a7a602        	bge	a6, a10, 0x40006dd8
40006dd5:	c6daff        	j	0x40006d44
40006dd8:	720149        	l8ui	a7, a1, 73
40006ddb:	620148        	l8ui	a6, a1, 72
40006dde:	606730        	xor	a6, a7, a6
40006de1:	72014a        	l8ui	a7, a1, 74
40006de4:	706630        	xor	a6, a6, a7
40006de7:	72014b        	l8ui	a7, a1, 75
40006dea:	706630        	xor	a6, a6, a7
40006ded:	604430        	xor	a4, a4, a6
40006df0:	622115        	l32i	a6, a1, 84
40006df3:	404074        	extui	a4, a4, 0, 8
40006df6:	160604        	beqz	a6, 0x40006e3a
40006df9:	22afc0        	movi	a2, -64
40006dfc:	202910        	and	a2, a9, a2
40006dff:	27132d        	beq	a3, a2, 0x40006e30
40006e02:	2089c0        	sub	a8, a9, a2
40006e05:	8a81      	add.n	a8, a1, a8
40006e07:	ad02      	mov.n	a10, a2
40006e09:	bd01      	mov.n	a11, a1
40006e0b:	4c0c      	movi.n	a12, 64
40006e0d:	82611e        	s32i	a8, a1, 120
40006e10:	92611f        	s32i	a9, a1, 124
40006e13:	d2611d        	s32i	a13, a1, 116
40006e16:	f2611c        	s32i	a15, a1, 112
40006e19:	e50b5c        	call8	0x40062ed8
40006e1c:	3d02      	mov.n	a3, a2
40006e1e:	82211e        	l32i	a8, a1, 120
40006e21:	92211f        	l32i	a9, a1, 124
40006e24:	d2211d        	l32i	a13, a1, 116
40006e27:	f2211c        	l32i	a15, a1, 112
40006e2a:	8c7a      	beqz.n	a10, 0x40006e35
40006e2c:	466900        	j	0x40006fd5
40006e2f to 40006e2f  --------- Unknown territory !!!
40006e30:	3089c0        	sub	a8, a9, a3
40006e33:	8a81      	add.n	a8, a1, a8
40006e35:	92c910        	addi	a9, a9, 16
40006e38:	2d08      	mov.n	a2, a8
40006e3a:	d07014        	extui	a7, a13, 0, 2
40006e3d:	0c06      	movi.n	a6, 0
40006e3f:	dc17      	bnez.n	a7, 0x40006e54
40006e41:	460600        	j	0x40006e5e
40006e44:	6a72      	add.n	a7, a2, a6
40006e46:	720700        	l8ui	a7, a7, 0
40006e49:	6aaf      	add.n	a10, a15, a6
40006e4b:	404730        	xor	a4, a7, a4
40006e4e:	724a00        	s8i	a7, a10, 0
40006e51:	62c601        	addi	a6, a6, 1
40006e54:	d726ec        	blt	a6, a13, 0x40006e44
40006e57:	da22      	add.n	a2, a2, a13
40006e59:	060e00        	j	0x40006e95
40006e5c to 40006e5d  --------- Unknown territory !!!
40006e5e:	bc3d      	beqz.n	a13, 0x40006e95
40006e60:	d0a241        	srli	a10, a13, 2
40006e63:	6d02      	mov.n	a6, a2
40006e65:	860900        	j	0x40006e8f
40006e68:	c20600        	l8ui	a12, a6, 0
40006e6b:	b20601        	l8ui	a11, a6, 1
40006e6e:	e20602        	l8ui	a14, a6, 2
40006e71:	b0bc30        	xor	a11, a12, a11
40006e74:	b04430        	xor	a4, a4, a11
40006e77:	e04430        	xor	a4, a4, a14
40006e7a:	e20603        	l8ui	a14, a6, 3
40006e7d:	c806      	l32i.n	a12, a6, 0
40006e7f:	f0b7a0        	addx4	a11, a7, a15
40006e82:	e04430        	xor	a4, a4, a14
40006e85:	404074        	extui	a4, a4, 0, 8
40006e88:	c90b      	s32i.n	a12, a11, 0
40006e8a:	1b77      	addi.n	a7, a7, 1
40006e8c:	62c604        	addi	a6, a6, 4
40006e8f:	a727d5        	blt	a7, a10, 0x40006e68
40006e92:	202aa0        	addx4	a2, a10, a2
40006e95:	622116        	l32i	a6, a1, 88
40006e98:	66162c        	bnei	a6, 1, 0x40006ec8
40006e9b:	c2080f        	l8ui	a12, a8, 15
40006e9e:	c7941b        	bne	a4, a12, 0x40006ebd
40006ea1:	322118        	l32i	a3, a1, 96
40006ea4:	222119        	l32i	a2, a1, 100
40006ea7:	a1a6fe        	l32r	a10, 0x40006940	; ( 0x3ff9e8ec )
40006eaa:	3902      	s32i.n	a3, a2, 0
40006eac:	bd03      	mov.n	a11, a3
40006eae:	65ea00        	call8	0x40007d54
40006eb1:	42211a        	l32i	a4, a1, 104
40006eb4:	568410        	bnez	a4, 0x40006fc0
40006eb7:	464300        	j	0x40006fc8
40006eba to 40006ebc  --------- Unknown territory !!!
40006ebd:	a1a1fe        	l32r	a10, 0x40006944	; ( 0x3ff9e8fa )
40006ec0:	bd04      	mov.n	a11, a4
40006ec2:	25e900        	call8	0x40007d54
40006ec5:	c64600        	j	0x40006fe4
40006ec8:	5aed      	add.n	a14, a13, a5
40006eca:	e07074        	extui	a7, a14, 0, 8
40006ecd:	1c0a      	movi.n	a10, 16
40006ecf:	706ac0        	sub	a6, a10, a7
40006ed2:	606074        	extui	a6, a6, 0, 8
40006ed5:	b68644        	bltui	a6, 8, 0x40006f1d
40006ed8:	a20201        	l8ui	a10, a2, 1
40006edb:	b20200        	l8ui	a11, a2, 0
40006ede:	520202        	l8ui	a5, a2, 2
40006ee1:	80aa11        	slli	a10, a10, 8
40006ee4:	620203        	l8ui	a6, a2, 3
40006ee7:	b0aa20        	or	a10, a10, a11
40006eea:	005511        	slli	a5, a5, 16
40006eed:	a05520        	or	a5, a5, a10
40006ef0:	806601        	slli	a6, a6, 24
40006ef3:	a20205        	l8ui	a10, a2, 5
40006ef6:	506620        	or	a6, a6, a5
40006ef9:	b20204        	l8ui	a11, a2, 4
40006efc:	520206        	l8ui	a5, a2, 6
40006eff:	80aa11        	slli	a10, a10, 8
40006f02:	d20207        	l8ui	a13, a2, 7
40006f05:	b0aa20        	or	a10, a10, a11
40006f08:	005511        	slli	a5, a5, 16
40006f0b:	a05520        	or	a5, a5, a10
40006f0e:	80dd01        	slli	a13, a13, 24
40006f11:	50dd20        	or	a13, a13, a5
40006f14:	8b57      	addi.n	a5, a7, 8
40006f16:	505074        	extui	a5, a5, 0, 8
40006f19:	c62200        	j	0x40006fa8
40006f1c to 40006f1c  --------- Unknown territory !!!
40006f1d:	a18afe        	l32r	a10, 0x40006948	; ( 0x3ff9e913 )
40006f20:	d0cd20        	or	a12, a13, a13
40006f23:	bd05      	mov.n	a11, a5
40006f25:	dd06      	mov.n	a13, a6
40006f27:	92611f        	s32i	a9, a1, 124
40006f2a:	82611e        	s32i	a8, a1, 120
40006f2d:	e2611c        	s32i	a14, a1, 112
40006f30:	25e200        	call8	0x40007d54
40006f33:	82211e        	l32i	a8, a1, 120
40006f36:	e2211c        	l32i	a14, a1, 112
40006f39:	a2c140        	addi	a10, a1, 64
40006f3c:	eab8      	add.n	a11, a8, a14
40006f3e:	cd06      	mov.n	a12, a6
40006f40:	653805        	call8	0x4000c2c8
40006f43:	92211f        	l32i	a9, a1, 124
40006f46:	22afc0        	movi	a2, -64
40006f49:	202910        	and	a2, a9, a2
40006f4c:	27131d        	beq	a3, a2, 0x40006f6d
40006f4f:	2089c0        	sub	a8, a9, a2
40006f52:	8a81      	add.n	a8, a1, a8
40006f54:	ad02      	mov.n	a10, a2
40006f56:	bd01      	mov.n	a11, a1
40006f58:	4c0c      	movi.n	a12, 64
40006f5a:	82611e        	s32i	a8, a1, 120
40006f5d:	a5f75b        	call8	0x40062ed8
40006f60:	3d02      	mov.n	a3, a2
40006f62:	82211e        	l32i	a8, a1, 120
40006f65:	92211f        	l32i	a9, a1, 124
40006f68:	9c4a      	beqz.n	a10, 0x40006f80
40006f6a:	460200        	j	0x40006f77
40006f6d:	3089c0        	sub	a8, a9, a3
40006f70:	8a81      	add.n	a8, a1, a8
40006f72:	860200        	j	0x40006f80
40006f75 to 40006f76  --------- Unknown territory !!!
40006f77:	22a388        	movi	a2, 0x388
40006f7a:	226114        	s32i	a2, a1, 80
40006f7d:	861600        	j	0x40006fdb
40006f80:	52c7f8        	addi	a5, a7, -8
40006f83:	505074        	extui	a5, a5, 0, 8
40006f86:	22c140        	addi	a2, a1, 64
40006f89:	92c910        	addi	a9, a9, 16
40006f8c:	6aa2      	add.n	a10, a2, a6
40006f8e:	bd08      	mov.n	a11, a8
40006f90:	50c520        	or	a12, a5, a5
40006f93:	82611e        	s32i	a8, a1, 120
40006f96:	92611f        	s32i	a9, a1, 124
40006f99:	e53205        	call8	0x4000c2c8
40006f9c:	d22111        	l32i	a13, a1, 68
40006f9f:	622110        	l32i	a6, a1, 64
40006fa2:	92211f        	l32i	a9, a1, 124
40006fa5:	82211e        	l32i	a8, a1, 120
40006fa8:	a22116        	l32i	a10, a1, 88
40006fab:	5a28      	add.n	a2, a8, a5
40006fad:	0b7a      	addi.n	a7, a10, -1
40006faf:	70a074        	extui	a10, a7, 0, 8
40006fb2:	a26116        	s32i	a10, a1, 88
40006fb5:	a22116        	l32i	a10, a1, 88
40006fb8:	562acd        	bnez	a10, 0x40006c8e
40006fbb:	86b8ff        	j	0x40006ea1
40006fbe to 40006fbf  --------- Unknown territory !!!
40006fc0:	322119        	l32i	a3, a1, 100
40006fc3:	2803      	l32i.n	a2, a3, 0
40006fc5:	e00200        	callx8	a2
40006fc8:	0c02      	movi.n	a2, 0
40006fca:	1df0      	retw.n
40006fcc:	42a2c7        	movi	a4, 0x2c7
40006fcf:	426114        	s32i	a4, a1, 80
40006fd2:	460100        	j	0x40006fdb
40006fd5:	52a34c        	movi	a5, 0x34c
40006fd8:	526114        	s32i	a5, a1, 80
40006fdb:	a158fe        	l32r	a10, 0x4000693c	; ( 0x3ff9e8d8 )
40006fde:	b22114        	l32i	a11, a1, 80
40006fe1:	25d700        	call8	0x40007d54
40006fe4:	0c12      	movi.n	a2, 1
40006fe6:	1df0      	retw.n
40006fe8:	ea76      	add.n	a7, a6, a14
40006fea:	ea22      	add.n	a2, a2, a14
40006fec:	e0ddc0        	sub	a13, a13, a14
40006fef:	d06441        	srli	a6, a13, 4
40006ff2:	626117        	s32i	a6, a1, 92
40006ff5:	d0d034        	extui	a13, a13, 0, 4
40006ff8:	0c05      	movi.n	a5, 0
40006ffa:	464eff        	j	0x40006d37
40006ffd to 40006fff  --------- Unknown territory !!!
40007000:	3ff00044	; l32r
40007004:	3ff0005c	; l32r
40007008:	3ff10000	; l32r
4000700c:	3ff9e92a	; l32r
40007010:	3f3ff080	; l32r
40007014:	3ff9e947	; l32r
40007018:	36e100        	entry	a1, 112
4000701b:	404074        	extui	a4, a4, 0, 8
4000701e:	49c1      	s32i.n	a4, a1, 48
40007020:	4141fe        	l32r	a4, 0x40006924	; ( 0x3ff44038 )
40007023:	3991      	s32i.n	a3, a1, 36
40007025:	c02000        	memw
40007028:	7804      	l32i.n	a7, a4, 0
4000702a:	0c03      	movi.n	a3, 0
4000702c:	2941      	s32i.n	a2, a1, 16
4000702e:	2971      	s32i.n	a2, a1, 28
40007030:	3921      	s32i.n	a3, a1, 8
40007032:	505074        	extui	a5, a5, 0, 8
40007035:	606074        	extui	a6, a6, 0, 8
40007038:	2d03      	mov.n	a2, a3
4000703a:	47e714        	bbsi	a7, 4, 0x40007052
4000703d:	c02000        	memw
40007040:	4804      	l32i.n	a4, a4, 0
40007042:	1cc3      	movi.n	a3, 28
40007044:	304410        	and	a4, a4, a3
40007047:	42c4f8        	addi	a4, a4, -8
4000704a:	0c13      	movi.n	a3, 1
4000704c:	402393        	movnez	a2, a3, a4
4000704f:	202074        	extui	a2, a2, 0, 8
40007052:	a2a000        	movi	a10, 0
40007055:	25a602        	call8	0x40009ab8
40007058:	a2a000        	movi	a10, 0
4000705b:	a59b02        	call8	0x40009a14
4000705e:	41e8ff        	l32r	a4, 0x40007000	; ( 0x3ff00044 )
40007061:	31e8ff        	l32r	a3, 0x40007004	; ( 0x3ff0005c )
40007064:	c02000        	memw
40007067:	922400        	l32i	a9, a4, 0
4000706a:	c02000        	memw
4000706d:	8803      	l32i.n	a8, a3, 0
4000706f:	c02000        	memw
40007072:	a803      	l32i.n	a10, a3, 0
40007074:	3cf7      	movi.n	a7, 63
40007076:	70aa20        	or	a10, a10, a7
40007079:	c02000        	memw
4000707c:	a903      	s32i.n	a10, a3, 0
4000707e:	c02000        	memw
40007081:	a804      	l32i.n	a10, a4, 0
40007083:	4c0e      	movi.n	a14, 64
40007085:	707a20        	or	a7, a10, a7
40007088:	c02000        	memw
4000708b:	7904      	s32i.n	a7, a4, 0
4000708d:	71deff        	l32r	a7, 0x40007008	; ( 0x3ff10000 )
40007090:	0c1f      	movi.n	a15, 1
40007092:	c02000        	memw
40007095:	a807      	l32i.n	a10, a7, 0
40007097:	a9a1      	s32i.n	a10, a1, 40
40007099:	c02000        	memw
4000709c:	9904      	s32i.n	a9, a4, 0
4000709e:	c02000        	memw
400070a1:	8903      	s32i.n	a8, a3, 0
400070a3:	4103fe        	l32r	a4, 0x400068b0	; ( 0xffff0000 )
400070a6:	3101fe        	l32r	a3, 0x400068ac	; ( 0x3f400000 )
400070a9:	d841      	l32i.n	a13, a1, 16
400070ab:	0c0a      	movi.n	a10, 0
400070ad:	cd03      	mov.n	a12, a3
400070af:	40dd10        	and	a13, a13, a4
400070b2:	bd0a      	mov.n	a11, a10
400070b4:	a55202        	call8	0x400095e0
400070b7:	0c0a      	movi.n	a10, 0
400070b9:	a59c02        	call8	0x40009a84
400070bc:	4841      	l32i.n	a4, a1, 16
400070be:	4070f4        	extui	a7, a4, 0, 16
400070c1:	3a37      	add.n	a3, a7, a3
400070c3:	3921      	s32i.n	a3, a1, 8
400070c5:	66150d        	bnei	a5, 1, 0x400070d6
400070c8:	404064        	extui	a4, a4, 0, 7
400070cb:	cc74      	bnez.n	a4, 0x400070d6
400070cd:	a2af80        	movi	a10, -128
400070d0:	a0a310        	and	a10, a3, a10
400070d3:	25a055        	call8	0x4005cad4
400070d6:	3841      	l32i.n	a3, a1, 16
400070d8:	7821      	l32i.n	a7, a1, 8
400070da:	32c310        	addi	a3, a3, 16
400070dd:	3941      	s32i.n	a3, a1, 16
400070df:	820703        	l8ui	a8, a7, 3
400070e2:	920705        	l8ui	a9, a7, 5
400070e5:	89b1      	s32i.n	a8, a1, 44
400070e7:	a20704        	l8ui	a10, a7, 4
400070ea:	820706        	l8ui	a8, a7, 6
400070ed:	809911        	slli	a9, a9, 8
400070f0:	a09920        	or	a9, a9, a10
400070f3:	008811        	slli	a8, a8, 16
400070f6:	908820        	or	a8, a8, a9
400070f9:	920707        	l8ui	a9, a7, 7
400070fc:	320701        	l8ui	a3, a7, 1
400070ff:	809901        	slli	a9, a9, 24
40007102:	809920        	or	a9, a9, a8
40007105:	420702        	l8ui	a4, a7, 2
40007108:	9981      	s32i.n	a9, a1, 32
4000710a:	920700        	l8ui	a9, a7, 0
4000710d:	3951      	s32i.n	a3, a1, 20
4000710f:	4961      	s32i.n	a4, a1, 24
40007111:	82a0e9        	movi	a8, 233
40007114:	87190c        	beq	a9, a8, 0x40007124
40007117:	a109fe        	l32r	a10, 0x4000693c	; ( 0x3ff9e8d8 )
4000711a:	b2a3e8        	movi	a11, 0x3e8
4000711d:	65c300        	call8	0x40007d54
40007120:	0c12      	movi.n	a2, 1
40007122:	1df0      	retw.n
40007124:	16160a        	beqz	a6, 0x400071c9
40007127:	255301        	call8	0x40008658
4000712a:	81fefd        	l32r	a8, 0x40006924	; ( 0x3ff44038 )
4000712d:	a0da20        	or	a13, a10, a10
40007130:	c02000        	memw
40007133:	a22800        	l32i	a10, a8, 0
40007136:	d04d20        	or	a4, a13, a13
40007139:	ccbd      	bnez.n	a13, 0x40007148
4000713b:	1cc8      	movi.n	a8, 28
4000713d:	809a10        	and	a9, a10, a8
40007140:	92c9f8        	addi	a9, a9, -8
40007143:	0c18      	movi.n	a8, 1
40007145:	904883        	moveqz	a4, a8, a9
40007148:	320708        	l8ui	a3, a7, 8
4000714b:	a1b0ff        	l32r	a10, 0x4000700c	; ( 0x3ff9e92a )
4000714e:	40b420        	or	a11, a4, a4
40007151:	30c320        	or	a12, a3, a3
40007154:	d2610d        	s32i	a13, a1, 52
40007157:	e5bf00        	call8	0x40007d54
4000715a:	d8d1      	l32i.n	a13, a1, 52
4000715c:	cc5d      	bnez.n	a13, 0x40007165
4000715e:	a2af12        	movi	a10, -238
40007161:	aaa3      	add.n	a10, a3, a10
40007163:	cc3a      	bnez.n	a10, 0x4000716a
40007165:	2c1a      	movi.n	a10, 33
40007167:	373a06        	bltu	a10, a3, 0x40007171
4000716a:	ad03      	mov.n	a10, a3
4000716c:	bd04      	mov.n	a11, a4
4000716e:	e5c65a        	call8	0x40061ddc
40007171:	ad03      	mov.n	a10, a3
40007173:	bd04      	mov.n	a11, a4
40007175:	9bc7      	addi.n	a12, a7, 9
40007177:	25d05a        	call8	0x40061e78
4000717a:	98b1      	l32i.n	a9, a1, 44
4000717c:	3861      	l32i.n	a3, a1, 24
4000717e:	0c58      	movi.n	a8, 5
40007180:	904034        	extui	a4, a9, 0, 4
40007183:	808363        	minu	a8, a3, a8
40007186:	0c17      	movi.n	a7, 1
40007188:	f63401        	bgeui	a4, 3, 0x4000718d
4000718b:	2b74      	addi.n	a7, a4, 2
4000718d:	b2a000        	movi	a11, 0
40007190:	70a720        	or	a10, a7, a7
40007193:	826110        	s32i	a8, a1, 64
40007196:	25a35b        	call8	0x40062bc8
40007199:	0c1b      	movi.n	a11, 1
4000719b:	ad07      	mov.n	a10, a7
4000719d:	a5a25b        	call8	0x40062bc8
400071a0:	bd07      	mov.n	a11, a7
400071a2:	0c0a      	movi.n	a10, 0
400071a4:	a5be5a        	call8	0x40061d90
400071a7:	bd07      	mov.n	a11, a7
400071a9:	0c1a      	movi.n	a10, 1
400071ab:	65be5a        	call8	0x40061d90
400071ae:	822110        	l32i	a8, a1, 64
400071b1:	41dffd        	l32r	a4, 0x40006930	; ( 0x3ff99270 )
400071b4:	a1defd        	l32r	a10, 0x4000692c	; ( 0x3ff9e8a1 )
400071b7:	4088a0        	addx4	a8, a8, a4
400071ba:	b808      	l32i.n	a11, a8, 0
400071bc:	cd07      	mov.n	a12, a7
400071be:	65b900        	call8	0x40007d54
400071c1:	a861      	l32i.n	a10, a1, 24
400071c3:	20b220        	or	a11, a2, a2
400071c6:	e5775b        	call8	0x40062944
400071c9:	32c110        	addi	a3, a1, 16
400071cc:	8bb1      	addi.n	a11, a1, 8
400071ce:	ad03      	mov.n	a10, a3
400071d0:	cd05      	mov.n	a12, a5
400071d2:	d2a412        	movi	a13, 0x412
400071d5:	256eff        	call8	0x400068b8
400071d8:	2821      	l32i.n	a2, a1, 8
400071da:	820209        	l8ui	a8, a2, 9
400071dd:	920208        	l8ui	a9, a2, 8
400071e0:	72020a        	l8ui	a7, a2, 10
400071e3:	808811        	slli	a8, a8, 8
400071e6:	42020b        	l8ui	a4, a2, 11
400071e9:	908820        	or	a8, a8, a9
400071ec:	007711        	slli	a7, a7, 16
400071ef:	807720        	or	a7, a7, a8
400071f2:	804401        	slli	a4, a4, 24
400071f5:	92020d        	l8ui	a9, a2, 13
400071f8:	704420        	or	a4, a4, a7
400071fb:	82020e        	l8ui	a8, a2, 14
400071fe:	72020c        	l8ui	a7, a2, 12
40007201:	809911        	slli	a9, a9, 8
40007204:	b2020f        	l8ui	a11, a2, 15
40007207:	709920        	or	a9, a9, a7
4000720a:	008811        	slli	a8, a8, 16
4000720d:	908820        	or	a8, a8, a9
40007210:	80bb01        	slli	a11, a11, 24
40007213:	80bb20        	or	a11, a11, a8
40007216:	8d0b      	mov.n	a8, a11
40007218:	d60410        	bgez	a4, 0x4000731c
4000721b:	92cbf8        	addi	a9, a11, -8
4000721e:	909034        	extui	a9, a9, 0, 4
40007221:	407075        	extui	a7, a4, 16, 8
40007224:	a1c4fd        	l32r	a10, 0x40006934	; ( 0x3ff9e8b8 )
40007227:	5629ef        	bnez	a9, 0x4000711d
4000722a:	b0b4f4        	extui	a11, a11, 4, 16
4000722d:	b961      	s32i.n	a11, a1, 24
4000722f:	2d09      	mov.n	a2, a9
40007231:	861100        	j	0x4000727b
40007234 to 40007234  --------- Unknown territory !!!
40007235:	d2a422        	movi	a13, 0x422
40007238:	99f1      	s32i.n	a9, a1, 60
4000723a:	e567ff        	call8	0x400068b8
4000723d:	98f1      	l32i.n	a9, a1, 60
4000723f:	bc37      	beqz.n	a7, 0x40007276
40007241:	0b87      	addi.n	a8, a7, -1
40007243:	8070f4        	extui	a7, a8, 0, 16
40007246:	ccb9      	bnez.n	a9, 0x40007255
40007248:	a821      	l32i.n	a10, a1, 8
4000724a:	25225b        	call8	0x4006246c
4000724d:	9d0a      	mov.n	a9, a10
4000724f:	a2a000        	movi	a10, 0
40007252:	907a83        	moveqz	a7, a10, a9
40007255:	0b99      	addi.n	a9, a9, -1
40007257:	9090f4        	extui	a9, a9, 0, 16
4000725a:	9c87      	beqz.n	a7, 0x40007276
4000725c:	0b87      	addi.n	a8, a7, -1
4000725e:	8070f4        	extui	a7, a8, 0, 16
40007261:	ccc9      	bnez.n	a9, 0x40007271
40007263:	a821      	l32i.n	a10, a1, 8
40007265:	8baa      	addi.n	a10, a10, 8
40007267:	65205b        	call8	0x4006246c
4000726a:	9d0a      	mov.n	a9, a10
4000726c:	0c0a      	movi.n	a10, 0
4000726e:	907a83        	moveqz	a7, a10, a9
40007271:	0b99      	addi.n	a9, a9, -1
40007273:	9090f4        	extui	a9, a9, 0, 16
40007276:	1b22      	addi.n	a2, a2, 1
40007278:	2020f4        	extui	a2, a2, 0, 16
4000727b:	8861      	l32i.n	a8, a1, 24
4000727d:	ad03      	mov.n	a10, a3
4000727f:	8bb1      	addi.n	a11, a1, 8
40007281:	50c520        	or	a12, a5, a5
40007284:	8732ad        	bltu	a2, a8, 0x40007235
40007287:	d2a439        	movi	a13, 0x439
4000728a:	e562ff        	call8	0x400068b8
4000728d:	8c47      	beqz.n	a7, 0x40007295
4000728f:	a22102        	l32i	a10, a1, 8
40007292:	a51d5b        	call8	0x4006246c
40007295:	165604        	beqz	a6, 0x400072de
40007298:	0c52      	movi.n	a2, 5
4000729a:	406074        	extui	a6, a4, 0, 8
4000729d:	403834        	extui	a3, a4, 8, 4
400072a0:	206663        	minu	a6, a6, a2
400072a3:	0c12      	movi.n	a2, 1
400072a5:	f63301        	bgeui	a3, 3, 0x400072aa
400072a8:	2b23      	addi.n	a2, a3, 2
400072aa:	0c0b      	movi.n	a11, 0
400072ac:	ad02      	mov.n	a10, a2
400072ae:	a5915b        	call8	0x40062bc8
400072b1:	0c1b      	movi.n	a11, 1
400072b3:	ad02      	mov.n	a10, a2
400072b5:	25915b        	call8	0x40062bc8
400072b8:	bd02      	mov.n	a11, a2
400072ba:	0c0a      	movi.n	a10, 0
400072bc:	25ad5a        	call8	0x40061d90
400072bf:	bd02      	mov.n	a11, a2
400072c1:	a2a001        	movi	a10, 1
400072c4:	a5ac5a        	call8	0x40061d90
400072c7:	319afd        	l32r	a3, 0x40006930	; ( 0x3ff99270 )
400072ca:	a198fd        	l32r	a10, 0x4000692c	; ( 0x3ff9e8a1 )
400072cd:	3066a0        	addx4	a6, a6, a3
400072d0:	b806      	l32i.n	a11, a6, 0
400072d2:	20c220        	or	a12, a2, a2
400072d5:	e5a700        	call8	0x40007d54
400072d8:	40a074        	extui	a10, a4, 0, 8
400072db:	a5885b        	call8	0x40062b64
400072de:	2821      	l32i.n	a2, a1, 8
400072e0:	620209        	l8ui	a6, a2, 9
400072e3:	720208        	l8ui	a7, a2, 8
400072e6:	32020a        	l8ui	a3, a2, 10
400072e9:	806611        	slli	a6, a6, 8
400072ec:	42020b        	l8ui	a4, a2, 11
400072ef:	706620        	or	a6, a6, a7
400072f2:	003311        	slli	a3, a3, 16
400072f5:	603320        	or	a3, a3, a6
400072f8:	804401        	slli	a4, a4, 24
400072fb:	62020d        	l8ui	a6, a2, 13
400072fe:	304420        	or	a4, a4, a3
40007301:	72020c        	l8ui	a7, a2, 12
40007304:	32020e        	l8ui	a3, a2, 14
40007307:	806611        	slli	a6, a6, 8
4000730a:	82020f        	l8ui	a8, a2, 15
4000730d:	706620        	or	a6, a6, a7
40007310:	003311        	slli	a3, a3, 16
40007313:	603320        	or	a3, a3, a6
40007316:	808801        	slli	a8, a8, 24
40007319:	308820        	or	a8, a8, a3
4000731c:	a2c110        	addi	a10, a1, 16
4000731f:	8bb1      	addi.n	a11, a1, 8
40007321:	cd05      	mov.n	a12, a5
40007323:	d2a45b        	movi	a13, 0x45b
40007326:	826110        	s32i	a8, a1, 64
40007329:	e558ff        	call8	0x400068b8
4000732c:	62a0ef        	movi	a6, 239
4000732f:	3821      	l32i.n	a3, a1, 8
40007331:	0c02      	movi.n	a2, 0
40007333:	822110        	l32i	a8, a1, 64
40007336:	069000        	j	0x4000757a
40007339 to 40007339  --------- Unknown territory !!!
4000733a:	a2a010        	movi	a10, 16
4000733d:	209ac0        	sub	a9, a10, a2
40007340:	a17efd        	l32r	a10, 0x40006938	; ( 0x3ff9e8c4 )
40007343:	909074        	extui	a9, a9, 0, 8
40007346:	80c820        	or	a12, a8, a8
40007349:	40b420        	or	a11, a4, a4
4000734c:	826110        	s32i	a8, a1, 64
4000734f:	99f1      	s32i.n	a9, a1, 60
40007351:	25a000        	call8	0x40007d54
40007354:	822110        	l32i	a8, a1, 64
40007357:	98f1      	l32i.n	a9, a1, 60
40007359:	7d04      	mov.n	a7, a4
4000735b:	973809        	bltu	a8, a9, 0x40007368
4000735e:	90a014        	extui	a10, a9, 0, 2
40007361:	0c1e      	movi.n	a14, 1
40007363:	ac6a      	beqz.n	a10, 0x4000738d
40007365:	860200        	j	0x40007373
40007368:	0c0e      	movi.n	a14, 0
4000736a:	804074        	extui	a4, a8, 0, 8
4000736d:	9d0e      	mov.n	a9, a14
4000736f:	861600        	j	0x400073cd
40007372 to 40007372  --------- Unknown territory !!!
40007373:	0c02      	movi.n	a2, 0
40007375:	860300        	j	0x40007387
40007378:	2a73      	add.n	a7, a3, a2
4000737a:	720700        	l8ui	a7, a7, 0
4000737d:	4aa2      	add.n	a10, a2, a4
4000737f:	606730        	xor	a6, a7, a6
40007382:	724a00        	s8i	a7, a10, 0
40007385:	1b22      	addi.n	a2, a2, 1
40007387:	9722ed        	blt	a2, a9, 0x40007378
4000738a:	86a900        	j	0x40007634
4000738d:	16792a        	beqz	a9, 0x40007638
40007390:	907241        	srli	a7, a9, 2
40007393:	2d03      	mov.n	a2, a3
40007395:	c60900        	j	0x400073c0
40007398:	c20200        	l8ui	a12, a2, 0
4000739b:	b20201        	l8ui	a11, a2, 1
4000739e:	d20202        	l8ui	a13, a2, 2
400073a1:	b0bc30        	xor	a11, a12, a11
400073a4:	b06630        	xor	a6, a6, a11
400073a7:	d06630        	xor	a6, a6, a13
400073aa:	d20203        	l8ui	a13, a2, 3
400073ad:	c802      	l32i.n	a12, a2, 0
400073af:	30b2c0        	sub	a11, a2, a3
400073b2:	d06630        	xor	a6, a6, a13
400073b5:	4abb      	add.n	a11, a11, a4
400073b7:	606074        	extui	a6, a6, 0, 8
400073ba:	c90b      	s32i.n	a12, a11, 0
400073bc:	1baa      	addi.n	a10, a10, 1
400073be:	4b22      	addi.n	a2, a2, 4
400073c0:	772ad4        	blt	a10, a7, 0x40007398
400073c3:	e07711        	slli	a7, a7, 2
400073c6:	7a33      	add.n	a3, a3, a7
400073c8:	7a74      	add.n	a7, a4, a7
400073ca:	869a00        	j	0x40007638
400073cd:	0c08      	movi.n	a8, 0
400073cf:	8931      	s32i.n	a8, a1, 12
400073d1:	461000        	j	0x40007416
400073d4:	a2c110        	addi	a10, a1, 16
400073d7:	8bb1      	addi.n	a11, a1, 8
400073d9:	cd05      	mov.n	a12, a5
400073db:	d2a48a        	movi	a13, 0x48a
400073de:	826110        	s32i	a8, a1, 64
400073e1:	99f1      	s32i.n	a9, a1, 60
400073e3:	e9e1      	s32i.n	a14, a1, 56
400073e5:	f9d1      	s32i.n	a15, a1, 52
400073e7:	254dff        	call8	0x400068b8
400073ea:	b821      	l32i.n	a11, a1, 8
400073ec:	f8d1      	l32i.n	a15, a1, 52
400073ee:	c80b      	l32i.n	a12, a11, 0
400073f0:	a81b      	l32i.n	a10, a11, 4
400073f2:	a0ac30        	xor	a10, a12, a10
400073f5:	c831      	l32i.n	a12, a1, 12
400073f7:	c0aa30        	xor	a10, a10, a12
400073fa:	c82b      	l32i.n	a12, a11, 8
400073fc:	c0aa30        	xor	a10, a10, a12
400073ff:	c83b      	l32i.n	a12, a11, 12
40007401:	c0aa30        	xor	a10, a10, a12
40007404:	a931      	s32i.n	a10, a1, 12
40007406:	1c0c      	movi.n	a12, 16
40007408:	ad0f      	mov.n	a10, a15
4000740a:	e5eb04        	call8	0x4000c2c8
4000740d:	822110        	l32i	a8, a1, 64
40007410:	e8e1      	l32i.n	a14, a1, 56
40007412:	98f1      	l32i.n	a9, a1, 60
40007414:	1b88      	addi.n	a8, a8, 1
40007416:	c0f811        	slli	a15, a8, 4
40007419:	faf7      	add.n	a15, a7, a15
4000741b:	9728b5        	blt	a8, a9, 0x400073d4
4000741e:	0c08      	movi.n	a8, 0
40007420:	809953        	max	a9, a9, a8
40007423:	c09911        	slli	a9, a9, 4
40007426:	9a77      	add.n	a7, a7, a9
40007428:	82010c        	l8ui	a8, a1, 12
4000742b:	92010d        	l8ui	a9, a1, 13
4000742e:	808930        	xor	a8, a9, a8
40007431:	92010e        	l8ui	a9, a1, 14
40007434:	908830        	xor	a8, a8, a9
40007437:	92010f        	l8ui	a9, a1, 15
4000743a:	908830        	xor	a8, a8, a9
4000743d:	806630        	xor	a6, a6, a8
40007440:	606074        	extui	a6, a6, 0, 8
40007443:	8cde      	beqz.n	a14, 0x40007454
40007445:	a2c110        	addi	a10, a1, 16
40007448:	8bb1      	addi.n	a11, a1, 8
4000744a:	cd05      	mov.n	a12, a5
4000744c:	d2a497        	movi	a13, 0x497
4000744f:	a546ff        	call8	0x400068b8
40007452:	3821      	l32i.n	a3, a1, 8
40007454:	409014        	extui	a9, a4, 0, 2
40007457:	0c08      	movi.n	a8, 0
40007459:	dc09      	bnez.n	a9, 0x4000746d
4000745b:	c60500        	j	0x40007476
4000745e:	8a93      	add.n	a9, a3, a8
40007460:	920900        	l8ui	a9, a9, 0
40007463:	8aa7      	add.n	a10, a7, a8
40007465:	606930        	xor	a6, a9, a6
40007468:	924a00        	s8i	a9, a10, 0
4000746b:	1b88      	addi.n	a8, a8, 1
4000746d:	4728ed        	blt	a8, a4, 0x4000745e
40007470:	4a33      	add.n	a3, a3, a4
40007472:	860d00        	j	0x400074ac
40007475 to 40007475  --------- Unknown territory !!!
40007476:	bc24      	beqz.n	a4, 0x400074ac
40007478:	40a241        	srli	a10, a4, 2
4000747b:	8d03      	mov.n	a8, a3
4000747d:	460900        	j	0x400074a6
40007480:	c20800        	l8ui	a12, a8, 0
40007483:	b20801        	l8ui	a11, a8, 1
40007486:	d20802        	l8ui	a13, a8, 2
40007489:	b0bc30        	xor	a11, a12, a11
4000748c:	b06630        	xor	a6, a6, a11
4000748f:	d06630        	xor	a6, a6, a13
40007492:	d20803        	l8ui	a13, a8, 3
40007495:	c808      	l32i.n	a12, a8, 0
40007497:	70b9a0        	addx4	a11, a9, a7
4000749a:	d06630        	xor	a6, a6, a13
4000749d:	606074        	extui	a6, a6, 0, 8
400074a0:	c90b      	s32i.n	a12, a11, 0
400074a2:	1b99      	addi.n	a9, a9, 1
400074a4:	4b88      	addi.n	a8, a8, 4
400074a6:	a729d6        	blt	a9, a10, 0x40007480
400074a9:	303aa0        	addx4	a3, a10, a3
400074ac:	8851      	l32i.n	a8, a1, 20
400074ae:	66181e        	bnei	a8, 1, 0x400074d0
400074b1:	2821      	l32i.n	a2, a1, 8
400074b3:	c2020f        	l8ui	a12, a2, 15
400074b6:	c7960b        	bne	a6, a12, 0x400074c5
400074b9:	261502        	beqi	a5, 1, 0x400074bf
400074bc:	464100        	j	0x400075c5
400074bf:	c62f00        	j	0x40007582
400074c2 to 400074c4  --------- Unknown territory !!!
400074c5:	a11ffd        	l32r	a10, 0x40006944	; ( 0x3ff9e8fa )
400074c8:	bd06      	mov.n	a11, a6
400074ca:	a58800        	call8	0x40007d54
400074cd:	c613ff        	j	0x40007120
400074d0:	2a94      	add.n	a9, a4, a2
400074d2:	907074        	extui	a7, a9, 0, 8
400074d5:	1c0a      	movi.n	a10, 16
400074d7:	708ac0        	sub	a8, a10, a7
400074da:	808074        	extui	a8, a8, 0, 8
400074dd:	b68848        	bltui	a8, 8, 0x40007529
400074e0:	820301        	l8ui	a8, a3, 1
400074e3:	920300        	l8ui	a9, a3, 0
400074e6:	220302        	l8ui	a2, a3, 2
400074e9:	808811        	slli	a8, a8, 8
400074ec:	420303        	l8ui	a4, a3, 3
400074ef:	908820        	or	a8, a8, a9
400074f2:	001a40        	ssl	a10
400074f5:	0022a1        	sll	a2, a2
400074f8:	802220        	or	a2, a2, a8
400074fb:	804401        	slli	a4, a4, 24
400074fe:	920305        	l8ui	a9, a3, 5
40007501:	204420        	or	a4, a4, a2
40007504:	a20304        	l8ui	a10, a3, 4
40007507:	220306        	l8ui	a2, a3, 6
4000750a:	809911        	slli	a9, a9, 8
4000750d:	820307        	l8ui	a8, a3, 7
40007510:	a09920        	or	a9, a9, a10
40007513:	002211        	slli	a2, a2, 16
40007516:	902220        	or	a2, a2, a9
40007519:	808801        	slli	a8, a8, 24
4000751c:	208820        	or	a8, a8, a2
4000751f:	8b27      	addi.n	a2, a7, 8
40007521:	202074        	extui	a2, a2, 0, 8
40007524:	461100        	j	0x4000756d
40007527 to 40007528  --------- Unknown territory !!!
40007529:	a107fd        	l32r	a10, 0x40006948	; ( 0x3ff9e913 )
4000752c:	dd08      	mov.n	a13, a8
4000752e:	bd02      	mov.n	a11, a2
40007530:	cd04      	mov.n	a12, a4
40007532:	826110        	s32i	a8, a1, 64
40007535:	99f1      	s32i.n	a9, a1, 60
40007537:	e58100        	call8	0x40007d54
4000753a:	98f1      	l32i.n	a9, a1, 60
4000753c:	822110        	l32i	a8, a1, 64
4000753f:	b821      	l32i.n	a11, a1, 8
40007541:	cd08      	mov.n	a12, a8
40007543:	9abb      	add.n	a11, a11, a9
40007545:	ad01      	mov.n	a10, a1
40007547:	25d804        	call8	0x4000c2c8
4000754a:	a2c110        	addi	a10, a1, 16
4000754d:	8bb1      	addi.n	a11, a1, 8
4000754f:	cd05      	mov.n	a12, a5
40007551:	d2a4ce        	movi	a13, 0x4ce
40007554:	2536ff        	call8	0x400068b8
40007557:	822110        	l32i	a8, a1, 64
4000755a:	22c7f8        	addi	a2, a7, -8
4000755d:	202074        	extui	a2, a2, 0, 8
40007560:	b821      	l32i.n	a11, a1, 8
40007562:	8aa1      	add.n	a10, a1, a8
40007564:	cd02      	mov.n	a12, a2
40007566:	25d604        	call8	0x4000c2c8
40007569:	8811      	l32i.n	a8, a1, 4
4000756b:	4801      	l32i.n	a4, a1, 0
4000756d:	9851      	l32i.n	a9, a1, 20
4000756f:	3821      	l32i.n	a3, a1, 8
40007571:	0b79      	addi.n	a7, a9, -1
40007573:	709074        	extui	a9, a7, 0, 8
40007576:	2a33      	add.n	a3, a3, a2
40007578:	9951      	s32i.n	a9, a1, 20
4000757a:	9851      	l32i.n	a9, a1, 20
4000757c:	56a9db        	bnez	a9, 0x4000733a
4000757f:	86cdff        	j	0x400074b9
40007582:	a2a000        	movi	a10, 0
40007585:	255302        	call8	0x40009ab8
40007588:	a2a000        	movi	a10, 0
4000758b:	a54802        	call8	0x40009a14
4000758e:	2871      	l32i.n	a2, a1, 28
40007590:	0c0a      	movi.n	a10, 0
40007592:	d2d2f0        	addmi	a13, a2, 0xfffff000
40007595:	21c6fc        	l32r	a2, 0x400068b0	; ( 0xffff0000 )
40007598:	c1c5fc        	l32r	a12, 0x400068ac	; ( 0x3f400000 )
4000759b:	bd0a      	mov.n	a11, a10
4000759d:	20dd10        	and	a13, a13, a2
400075a0:	4c0e      	movi.n	a14, 64
400075a2:	fd05      	mov.n	a15, a5
400075a4:	a50302        	call8	0x400095e0
400075a7:	0c0a      	movi.n	a10, 0
400075a9:	a54d02        	call8	0x40009a84
400075ac:	a199fe        	l32r	a10, 0x40007010	; ( 0x3f3ff080 )
400075af:	3871      	l32i.n	a3, a1, 28
400075b1:	a0a380        	add	a10, a3, a10
400075b4:	e56455        	call8	0x4005cc04
400075b7:	661a0a        	bnei	a10, 1, 0x400075c5
400075ba:	a196fe        	l32r	a10, 0x40007014	; ( 0x3ff9e947 )
400075bd:	657900        	call8	0x40007d54
400075c0:	06d7fe        	j	0x40007120
400075c3 to 400075c4  --------- Unknown territory !!!
400075c5:	0c0a      	movi.n	a10, 0
400075c7:	254f02        	call8	0x40009ab8
400075ca:	0c0a      	movi.n	a10, 0
400075cc:	654402        	call8	0x40009a14
400075cf:	318cfe        	l32r	a3, 0x40007000	; ( 0x3ff00044 )
400075d2:	218cfe        	l32r	a2, 0x40007004	; ( 0x3ff0005c )
400075d5:	c02000        	memw
400075d8:	6803      	l32i.n	a6, a3, 0
400075da:	c02000        	memw
400075dd:	5802      	l32i.n	a5, a2, 0
400075df:	c02000        	memw
400075e2:	7802      	l32i.n	a7, a2, 0
400075e4:	3cf4      	movi.n	a4, 63
400075e6:	407720        	or	a7, a7, a4
400075e9:	c02000        	memw
400075ec:	7902      	s32i.n	a7, a2, 0
400075ee:	c02000        	memw
400075f1:	7803      	l32i.n	a7, a3, 0
400075f3:	88a1      	l32i.n	a8, a1, 40
400075f5:	404720        	or	a4, a7, a4
400075f8:	c02000        	memw
400075fb:	4903      	s32i.n	a4, a3, 0
400075fd:	4182fe        	l32r	a4, 0x40007008	; ( 0x3ff10000 )
40007600:	0c0a      	movi.n	a10, 0
40007602:	c02000        	memw
40007605:	8904      	s32i.n	a8, a4, 0
40007607:	c02000        	memw
4000760a:	6903      	s32i.n	a6, a3, 0
4000760c:	c02000        	memw
4000760f:	5902      	s32i.n	a5, a2, 0
40007611:	254702        	call8	0x40009a84
40007614:	9891      	l32i.n	a9, a1, 36
40007616:	2881      	l32i.n	a2, a1, 32
40007618:	a1cafc        	l32r	a10, 0x40006940	; ( 0x3ff9e8ec )
4000761b:	2909      	s32i.n	a2, a9, 0
4000761d:	bd02      	mov.n	a11, a2
4000761f:	657300        	call8	0x40007d54
40007622:	38c1      	l32i.n	a3, a1, 48
40007624:	0c02      	movi.n	a2, 0
40007626:	27131c        	beq	a3, a2, 0x40007646
40007629:	8891      	l32i.n	a8, a1, 36
4000762b:	3808      	l32i.n	a3, a8, 0
4000762d:	e00300        	callx8	a3
40007630:	1df0      	retw.n
40007632 to 40007633  --------- Unknown territory !!!
40007634:	9a74      	add.n	a7, a4, a9
40007636:	9a33      	add.n	a3, a3, a9
40007638:	9048c0        	sub	a4, a8, a9
4000763b:	409441        	srli	a9, a4, 4
4000763e:	0c02      	movi.n	a2, 0
40007640:	404034        	extui	a4, a4, 0, 4
40007643:	8661ff        	j	0x400073cd
40007646:	1df0      	retw.n
40007648:	3ff9e95f	; l32r
4000764c:	3ff9e963	; l32r
40007650:	3ff9e974	; l32r
40007654:	3ff9e99f	; l32r
40007658:	3ff9e9ca	; l32r
4000765c:	3ff9e9f5	; l32r
40007660:	3ff9ea20	; l32r
40007664:	3ff9ea35	; l32r
40007668:	3ff9ea34	; l32r
4000766c:	3ff9ea44	; l32r
40007670:	3ff9ea59	; l32r
40007674:	3ff9918c	; l32r
40007678:	3ff48088	; l32r
4000767c:	ffff7fff	; l32r
40007680:	3ff480b0	; l32r
40007684:	3ff9ea62	; l32r
40007688:	3ff9ea6a	; l32r
4000768c:	3ff9ea75	; l32r
40007690:	3ff9ea80	; l32r
40007694:	3ff9ea8c	; l32r
40007698:	3ff9ea95	; l32r
4000769c:	0000c3ed	; l32r
400076a0:	00001c00	; l32r
400076a4:	3ff9eab4	; l32r
400076a8:	3ff9eacb	; l32r
400076ac:	3ffc0000	; l32r
400076b0:	3ff49068	; l32r
400076b4:	ffff8fff	; l32r
400076b8:	3ff5a018	; l32r
400076bc:	40006840	; l32r
400076c0:	3ff9eae1	; l32r
400076c4:	36e100        	entry	a1, 112
400076c7:	b1ebff        	l32r	a11, 0x40007674	; ( 0x3ff9918c )
400076ca:	ad01      	mov.n	a10, a1
400076cc:	4c4c      	movi.n	a12, 68
400076ce:	a5bf04        	call8	0x4000c2c8
400076d1:	21a7e3        	l32r	a2, 0x40000570	; ( 0x0000abab )
400076d4:	30eb03        	rsr.prid	a3
400076d7:	27930e        	bne	a3, a2, 0x400076e9
400076da:	316ffc        	l32r	a3, 0x40006898	; ( 0x3ff00038 )
400076dd:	c02000        	memw
400076e0:	2803      	l32i.n	a2, a3, 0
400076e2:	1672ff        	beqz	a2, 0x400076dd
400076e5:	c64101        	j	0x40007bf0
400076e8 to 400076e8  --------- Unknown territory !!!
400076e9:	2145fe        	l32r	a2, 0x40007000	; ( 0x3ff00044 )
400076ec:	0c63      	movi.n	a3, 6
400076ee:	c02000        	memw
400076f1:	4802      	l32i.n	a4, a2, 0
400076f3:	a2a000        	movi	a10, 0
400076f6:	303420        	or	a3, a4, a3
400076f9:	c02000        	memw
400076fc:	326200        	s32i	a3, a2, 0
400076ff:	65ad00        	call8	0x400081d4
40007702:	21ddff        	l32r	a2, 0x40007678	; ( 0x3ff48088 )
40007705:	41ddff        	l32r	a4, 0x4000767c	; ( 0xffff7fff )
40007708:	c02000        	memw
4000770b:	5802      	l32i.n	a5, a2, 0
4000770d:	3d0a      	mov.n	a3, a10
4000770f:	404510        	and	a4, a5, a4
40007712:	c02000        	memw
40007715:	4902      	s32i.n	a4, a2, 0
40007717:	c02000        	memw
4000771a:	5802      	l32i.n	a5, a2, 0
4000771c:	42a400        	movi	a4, 0x400
4000771f:	404520        	or	a4, a5, a4
40007722:	c02000        	memw
40007725:	4902      	s32i.n	a4, a2, 0
40007727:	a58a01        	call8	0x40008fd0
4000772a:	e5e500        	call8	0x40008588
4000772d:	bd0a      	mov.n	a11, a10
4000772f:	a2a000        	movi	a10, 0
40007732:	e59e01        	call8	0x40009120
40007735:	217bfc        	l32r	a2, 0x40006924	; ( 0x3ff44038 )
40007738:	c02000        	memw
4000773b:	4802      	l32i.n	a4, a2, 0
4000773d:	47e420        	bbsi	a4, 4, 0x40007761
40007740:	c02000        	memw
40007743:	5802      	l32i.n	a5, a2, 0
40007745:	1cc4      	movi.n	a4, 28
40007747:	404510        	and	a4, a5, a4
4000774a:	268413        	beqi	a4, 8, 0x40007761
4000774d:	c02000        	memw
40007750:	2802      	l32i.n	a2, a2, 0
40007752:	202044        	extui	a2, a2, 0, 5
40007755:	26a208        	beqi	a2, 12, 0x40007761
40007758:	e55c00        	call8	0x40007d28
4000775b:	860b00        	j	0x4000778d
4000775e to 40007760  --------- Unknown territory !!!
40007761:	21c7ff        	l32r	a2, 0x40007680	; ( 0x3ff480b0 )
40007764:	c02000        	memw
40007767:	2802      	l32i.n	a2, a2, 0
40007769:	07e220        	bbsi	a2, 0, 0x4000778d
4000776c:	216efc        	l32r	a2, 0x40006924	; ( 0x3ff44038 )
4000776f:	c02000        	memw
40007772:	4802      	l32i.n	a4, a2, 0
40007774:	17e4e0        	bbsi	a4, 1, 0x40007758
40007777:	c02000        	memw
4000777a:	4802      	l32i.n	a4, a2, 0
4000777c:	47e40d        	bbsi	a4, 4, 0x4000778d
4000777f:	c02000        	memw
40007782:	4802      	l32i.n	a4, a2, 0
40007784:	22a01c        	movi	a2, 28
40007787:	202410        	and	a2, a4, a2
4000778a:	6682ca        	bnei	a2, 8, 0x40007758
4000778d:	2165fc        	l32r	a2, 0x40006924	; ( 0x3ff44038 )
40007790:	0ce4      	movi.n	a4, 14
40007792:	c02000        	memw
40007795:	5802      	l32i.n	a5, a2, 0
40007797:	505044        	extui	a5, a5, 0, 5
4000779a:	47950e        	bne	a5, a4, 0x400077ac
4000779d:	a1b9ff        	l32r	a10, 0x40007684	; ( 0x3ff9ea62 )
400077a0:	b1baff        	l32r	a11, 0x40007688	; ( 0x3ff9ea6a )
400077a3:	c2a0ee        	movi	a12, 238
400077a6:	e55a00        	call8	0x40007d54
400077a9:	06ffff        	j	0x400077a9
400077ac:	c02000        	memw
400077af:	a802      	l32i.n	a10, a2, 0
400077b1:	1cb8      	movi.n	a8, 27
400077b3:	80aa10        	and	a10, a10, a8
400077b6:	662a02        	bnei	a10, 2, 0x400077bc
400077b9:	460f00        	j	0x400077fa
400077bc:	c02000        	memw
400077bf:	a802      	l32i.n	a10, a2, 0
400077c1:	80aa10        	and	a10, a10, a8
400077c4:	663a04        	bnei	a10, 3, 0x400077cc
400077c7:	c60b00        	j	0x400077fa
400077ca to 400077cb  --------- Unknown territory !!!
400077cc:	c02000        	memw
400077cf:	a802      	l32i.n	a10, a2, 0
400077d1:	80aa10        	and	a10, a10, a8
400077d4:	cc1a      	bnez.n	a10, 0x400077d9
400077d6:	060800        	j	0x400077fa
400077d9:	c02000        	memw
400077dc:	a802      	l32i.n	a10, a2, 0
400077de:	80aa10        	and	a10, a10, a8
400077e1:	661a03        	bnei	a10, 1, 0x400077e8
400077e4:	860400        	j	0x400077fa
400077e7 to 400077e7  --------- Unknown territory !!!
400077e8:	c02000        	memw
400077eb:	422200        	l32i	a4, a2, 0
400077ee:	22a00d        	movi	a2, 13
400077f1:	404044        	extui	a4, a4, 0, 5
400077f4:	279405        	bne	a4, a2, 0x400077fd
400077f7:	a2a004        	movi	a10, 4
400077fa:	e56503        	call8	0x4000ae58
400077fd:	8149fc        	l32r	a8, 0x40006924	; ( 0x3ff44038 )
40007800:	4192ff        	l32r	a4, 0x40007648	; ( 0x3ff9e95f )
40007803:	c02000        	memw
40007806:	5808      	l32i.n	a5, a8, 0
40007808:	2191ff        	l32r	a2, 0x4000764c	; ( 0x3ff9e963 )
4000780b:	505044        	extui	a5, a5, 0, 5
4000780e:	52c5f1        	addi	a5, a5, -15
40007811:	502493        	movnez	a2, a4, a5
40007814:	c02000        	memw
40007817:	5808      	l32i.n	a5, a8, 0
40007819:	1c84      	movi.n	a4, 24
4000781b:	478541        	bany	a5, a4, 0x40007860
4000781e:	c02000        	memw
40007821:	5808      	l32i.n	a5, a8, 0
40007823:	1cb9      	movi.n	a9, 27
40007825:	905510        	and	a5, a5, a9
40007828:	418aff        	l32r	a4, 0x40007650	; ( 0x3ff9e974 )
4000782b:	52c5fe        	addi	a5, a5, -2
4000782e:	502483        	moveqz	a2, a4, a5
40007831:	c02000        	memw
40007834:	5808      	l32i.n	a5, a8, 0
40007836:	4187ff        	l32r	a4, 0x40007654	; ( 0x3ff9e99f )
40007839:	905510        	and	a5, a5, a9
4000783c:	52c5fd        	addi	a5, a5, -3
4000783f:	502483        	moveqz	a2, a4, a5
40007842:	c02000        	memw
40007845:	5808      	l32i.n	a5, a8, 0
40007847:	4184ff        	l32r	a4, 0x40007658	; ( 0x3ff9e9ca )
4000784a:	905510        	and	a5, a5, a9
4000784d:	502483        	moveqz	a2, a4, a5
40007850:	c02000        	memw
40007853:	4808      	l32i.n	a4, a8, 0
40007855:	909410        	and	a9, a4, a9
40007858:	4181ff        	l32r	a4, 0x4000765c	; ( 0x3ff9e9f5 )
4000785b:	0b99      	addi.n	a9, a9, -1
4000785d:	902483        	moveqz	a2, a4, a9
40007860:	8131fc        	l32r	a8, 0x40006924	; ( 0x3ff44038 )
40007863:	c02000        	memw
40007866:	422800        	l32i	a4, a8, 0
40007869:	47e40b        	bbsi	a4, 4, 0x40007878
4000786c:	c02000        	memw
4000786f:	422800        	l32i	a4, a8, 0
40007872:	404044        	extui	a4, a4, 0, 5
40007875:	66a41f        	bnei	a4, 12, 0x40007898
40007878:	c02000        	memw
4000787b:	422800        	l32i	a4, a8, 0
4000787e:	2178ff        	l32r	a2, 0x40007660	; ( 0x3ff9ea20 )
40007881:	47e413        	bbsi	a4, 4, 0x40007898
40007884:	c02000        	memw
40007887:	5808      	l32i.n	a5, a8, 0
40007889:	42a01c        	movi	a4, 28
4000788c:	405510        	and	a5, a5, a4
4000788f:	4175ff        	l32r	a4, 0x40007664	; ( 0x3ff9ea35 )
40007892:	52c5f8        	addi	a5, a5, -8
40007895:	502493        	movnez	a2, a4, a5
40007898:	8123fc        	l32r	a8, 0x40006924	; ( 0x3ff44038 )
4000789b:	1cc4      	movi.n	a4, 28
4000789d:	c02000        	memw
400078a0:	5808      	l32i.n	a5, a8, 0
400078a2:	405510        	and	a5, a5, a4
400078a5:	4170ff        	l32r	a4, 0x40007668	; ( 0x3ff9ea34 )
400078a8:	52c5f8        	addi	a5, a5, -8
400078ab:	502483        	moveqz	a2, a4, a5
400078ae:	c02000        	memw
400078b1:	5808      	l32i.n	a5, a8, 0
400078b3:	416eff        	l32r	a4, 0x4000766c	; ( 0x3ff9ea44 )
400078b6:	505044        	extui	a5, a5, 0, 5
400078b9:	52c5f3        	addi	a5, a5, -13
400078bc:	502483        	moveqz	a2, a4, a5
400078bf:	c02000        	memw
400078c2:	5808      	l32i.n	a5, a8, 0
400078c4:	416bff        	l32r	a4, 0x40007670	; ( 0x3ff9ea59 )
400078c7:	505044        	extui	a5, a5, 0, 5
400078ca:	52c5f2        	addi	a5, a5, -14
400078cd:	502483        	moveqz	a2, a4, a5
400078d0:	1c05      	movi.n	a5, 16
400078d2:	415dff        	l32r	a4, 0x40007648	; ( 0x3ff9e95f )
400078d5:	373504        	bltu	a5, a3, 0x400078dd
400078d8:	1043a0        	addx4	a4, a3, a1
400078db:	4804      	l32i.n	a4, a4, 0
400078dd:	b16cff        	l32r	a11, 0x40007690	; ( 0x3ff9ea80 )
400078e0:	c16dff        	l32r	a12, 0x40007694	; ( 0x3ff9ea8c )
400078e3:	a16aff        	l32r	a10, 0x4000768c	; ( 0x3ff9ea75 )
400078e6:	e54600        	call8	0x40007d54
400078e9:	510efc        	l32r	a5, 0x40006924	; ( 0x3ff44038 )
400078ec:	a16bff        	l32r	a10, 0x40007698	; ( 0x3ff9ea95 )
400078ef:	c02000        	memw
400078f2:	d805      	l32i.n	a13, a5, 0
400078f4:	cd04      	mov.n	a12, a4
400078f6:	ed02      	mov.n	a14, a2
400078f8:	bd03      	mov.n	a11, a3
400078fa:	0b23      	addi.n	a2, a3, -1
400078fc:	0cf4      	movi.n	a4, 15
400078fe:	654500        	call8	0x40007d54
40007901:	27b402        	bgeu	a4, a2, 0x40007907
40007904:	46b600        	j	0x40007be1
40007907:	0c14      	movi.n	a4, 1
40007909:	001240        	ssl	a2
4000790c:	0024a1        	sll	a2, a4
4000790f:	4163ff        	l32r	a4, 0x4000769c	; ( 0x0000c3ed )
40007912:	478223        	bany	a2, a4, 0x40007939
40007915:	4162ff        	l32r	a4, 0x400076a0	; ( 0x00001c00 )
40007918:	404210        	and	a4, a2, a4
4000791b:	56e416        	bnez	a4, 0x40007a8d
4000791e:	47e202        	bbsi	a2, 4, 0x40007924
40007921:	06af00        	j	0x40007be1
40007924:	21d5fb        	l32r	a2, 0x40006878	; ( 0x3ffe0400 )
40007927:	bd03      	mov.n	a11, a3
40007929:	ad02      	mov.n	a10, a2
4000792b:	258f00        	call8	0x4000821c
4000792e:	5802      	l32i.n	a5, a2, 0
40007930:	165500        	beqz	a5, 0x40007939
40007933:	e00500        	callx8	a5
40007936:	426200        	s32i	a4, a2, 0
40007939:	e5c400        	call8	0x40008588
4000793c:	81fafb        	l32r	a8, 0x40006924	; ( 0x3ff44038 )
4000793f:	22a018        	movi	a2, 24
40007942:	c02000        	memw
40007945:	922800        	l32i	a9, a8, 0
40007948:	42a001        	movi	a4, 1
4000794b:	209910        	and	a9, a9, a2
4000794e:	0c02      	movi.n	a2, 0
40007950:	902483        	moveqz	a2, a4, a9
40007953:	c02000        	memw
40007956:	9808      	l32i.n	a9, a8, 0
40007958:	204074        	extui	a4, a2, 0, 8
4000795b:	1c02      	movi.n	a2, 16
4000795d:	202910        	and	a2, a9, a2
40007960:	5d0a      	mov.n	a5, a10
40007962:	dc62      	bnez.n	a2, 0x4000797c
40007964:	c02000        	memw
40007967:	a808      	l32i.n	a10, a8, 0
40007969:	1cc9      	movi.n	a9, 28
4000796b:	909a10        	and	a9, a10, a9
4000796e:	26890a        	beqi	a9, 8, 0x4000797c
40007971:	c02000        	memw
40007974:	9808      	l32i.n	a9, a8, 0
40007976:	909044        	extui	a9, a9, 0, 5
40007979:	66a950        	bnei	a9, 12, 0x400079cd
4000797c:	a5cd00        	call8	0x40008658
4000797f:	21e9fb        	l32r	a2, 0x40006924	; ( 0x3ff44038 )
40007982:	b2a000        	movi	a11, 0
40007985:	c02000        	memw
40007988:	422200        	l32i	a4, a2, 0
4000798b:	47e415        	bbsi	a4, 4, 0x400079a4
4000798e:	c02000        	memw
40007991:	422200        	l32i	a4, a2, 0
40007994:	1cc2      	movi.n	a2, 28
40007996:	204410        	and	a4, a4, a2
40007999:	42c4f8        	addi	a4, a4, -8
4000799c:	0c12      	movi.n	a2, 1
4000799e:	40b293        	movnez	a11, a2, a4
400079a1:	b0b074        	extui	a11, a11, 0, 8
400079a4:	21e0fb        	l32r	a2, 0x40006924	; ( 0x3ff44038 )
400079a7:	52a001        	movi	a5, 1
400079aa:	c02000        	memw
400079ad:	422200        	l32i	a4, a2, 0
400079b0:	22a01c        	movi	a2, 28
400079b3:	204410        	and	a4, a4, a2
400079b6:	42c4f8        	addi	a4, a4, -8
400079b9:	0c02      	movi.n	a2, 0
400079bb:	405293        	movnez	a5, a2, a4
400079be:	a0a583        	moveqz	a10, a5, a10
400079c1:	a50a5b        	call8	0x40062a6c
400079c4:	41adfb        	l32r	a4, 0x40006878	; ( 0x3ffe0400 )
400079c7:	2904      	s32i.n	a2, a4, 0
400079c9:	063000        	j	0x40007a8d
400079cc to 400079cc  --------- Unknown territory !!!
400079cd:	c02000        	memw
400079d0:	922800        	l32i	a9, a8, 0
400079d3:	0cf8      	movi.n	a8, 15
400079d5:	909044        	extui	a9, a9, 0, 5
400079d8:	879911        	bne	a9, a8, 0x400079ed
400079db:	bd02      	mov.n	a11, a2
400079dd:	40a420        	or	a10, a4, a4
400079e0:	256501        	call8	0x40009034
400079e3:	a0b0f4        	extui	a11, a10, 0, 16
400079e6:	ad04      	mov.n	a10, a4
400079e8:	256e01        	call8	0x400090cc
400079eb:	0c22      	movi.n	a2, 2
400079ed:	41cdfb        	l32r	a4, 0x40006924	; ( 0x3ff44038 )
400079f0:	0cd8      	movi.n	a8, 13
400079f2:	c02000        	memw
400079f5:	9804      	l32i.n	a9, a4, 0
400079f7:	909044        	extui	a9, a9, 0, 5
400079fa:	879907        	bne	a9, a8, 0x40007a05
400079fd:	a129ff        	l32r	a10, 0x400076a4	; ( 0x3ff9eab4 )
40007a00:	0c12      	movi.n	a2, 1
40007a02:	253500        	call8	0x40007d54
40007a05:	c02000        	memw
40007a08:	8804      	l32i.n	a8, a4, 0
40007a0a:	1c84      	movi.n	a4, 24
40007a0c:	404810        	and	a4, a8, a4
40007a0f:	566404        	bnez	a4, 0x40007a59
40007a12:	bd05      	mov.n	a11, a5
40007a14:	0c1a      	movi.n	a10, 1
40007a16:	a57001        	call8	0x40009120
40007a19:	a123ff        	l32r	a10, 0x400076a8	; ( 0x3ff9eacb )
40007a1c:	653300        	call8	0x40007d54
40007a1f:	ad04      	mov.n	a10, a4
40007a21:	658301        	call8	0x40009258
40007a24:	2c0a      	movi.n	a10, 32
40007a26:	25defe        	call8	0x40006808
40007a29:	0c14      	movi.n	a4, 1
40007a2b:	c60700        	j	0x40007a4e
40007a2e:	20a220        	or	a10, a2, a2
40007a31:	65d000        	call8	0x40008738
40007a34:	a02074        	extui	a2, a10, 0, 8
40007a37:	566201        	bnez	a2, 0x40007a51
40007a3a:	a2a001        	movi	a10, 1
40007a3d:	a5cf00        	call8	0x40008738
40007a40:	a02074        	extui	a2, a10, 0, 8
40007a43:	cca2      	bnez.n	a2, 0x40007a51
40007a45:	653e03        	call8	0x4000ae2c
40007a48:	a2cafe        	addi	a10, a10, -2
40007a4b:	a02483        	moveqz	a2, a4, a10
40007a4e:	16c2fd        	beqz	a2, 0x40007a2e
40007a51:	2c0a      	movi.n	a10, 32
40007a53:	101120        	or	a1, a1, a1
40007a56:	65dafe        	call8	0x400067fc
40007a59:	662211        	bnei	a2, 2, 0x40007a6e
40007a5c:	b14eef        	l32r	a11, 0x40003794	; ( 0x00002000 )
40007a5f:	c186fb        	l32r	a12, 0x40006878	; ( 0x3ffe0400 )
40007a62:	a112ff        	l32r	a10, 0x400076ac	; ( 0x3ffc0000 )
40007a65:	252801        	call8	0x40008ce8
40007a68:	460800        	j	0x40007a8d
40007a6b to 40007a6d  --------- Unknown territory !!!
40007a6e:	2110ff        	l32r	a2, 0x400076b0	; ( 0x3ff49068 )
40007a71:	4110ff        	l32r	a4, 0x400076b4	; ( 0xffff8fff )
40007a74:	c02000        	memw
40007a77:	5802      	l32i.n	a5, a2, 0
40007a79:	404510        	and	a4, a5, a4
40007a7c:	c02000        	memw
40007a7f:	4902      	s32i.n	a4, a2, 0
40007a81:	a53a03        	call8	0x4000ae2c
40007a84:	262a05        	beqi	a10, 2, 0x40007a8d
40007a87:	007000        	waiti	0
40007a8a:	c6fcff        	j	0x40007a81
40007a8d:	32c3f5        	addi	a3, a3, -11
40007a90:	f63349        	bgeui	a3, 3, 0x40007add
40007a93:	65bc00        	call8	0x40008658
40007a96:	21a3fb        	l32r	a2, 0x40006924	; ( 0x3ff44038 )
40007a99:	0c0b      	movi.n	a11, 0
40007a9b:	c02000        	memw
40007a9e:	3802      	l32i.n	a3, a2, 0
40007aa0:	47e314        	bbsi	a3, 4, 0x40007ab8
40007aa3:	c02000        	memw
40007aa6:	3802      	l32i.n	a3, a2, 0
40007aa8:	1cc2      	movi.n	a2, 28
40007aaa:	203310        	and	a3, a3, a2
40007aad:	32c3f8        	addi	a3, a3, -8
40007ab0:	0c12      	movi.n	a2, 1
40007ab2:	30b293        	movnez	a11, a2, a3
40007ab5:	b0b074        	extui	a11, a11, 0, 8
40007ab8:	219bfb        	l32r	a2, 0x40006924	; ( 0x3ff44038 )
40007abb:	42a001        	movi	a4, 1
40007abe:	c02000        	memw
40007ac1:	322200        	l32i	a3, a2, 0
40007ac4:	22a01c        	movi	a2, 28
40007ac7:	203310        	and	a3, a3, a2
40007aca:	32c3f8        	addi	a3, a3, -8
40007acd:	0c02      	movi.n	a2, 0
40007acf:	304293        	movnez	a4, a2, a3
40007ad2:	a0a483        	moveqz	a10, a4, a10
40007ad5:	65f95a        	call8	0x40062a6c
40007ad8:	3168fb        	l32r	a3, 0x40006878	; ( 0x3ffe0400 )
40007adb:	2903      	s32i.n	a2, a3, 0
40007add:	2191fb        	l32r	a2, 0x40006924	; ( 0x3ff44038 )
40007ae0:	c02000        	memw
40007ae3:	3802      	l32i.n	a3, a2, 0
40007ae5:	47e33c        	bbsi	a3, 4, 0x40007b25
40007ae8:	c02000        	memw
40007aeb:	4802      	l32i.n	a4, a2, 0
40007aed:	1cc3      	movi.n	a3, 28
40007aef:	303410        	and	a3, a4, a3
40007af2:	26832f        	beqi	a3, 8, 0x40007b25
40007af5:	c02000        	memw
40007af8:	3802      	l32i.n	a3, a2, 0
40007afa:	303044        	extui	a3, a3, 0, 5
40007afd:	26a324        	beqi	a3, 12, 0x40007b25
40007b00:	c02000        	memw
40007b03:	4802      	l32i.n	a4, a2, 0
40007b05:	0cf3      	movi.n	a3, 15
40007b07:	404044        	extui	a4, a4, 0, 5
40007b0a:	37140e        	beq	a4, a3, 0x40007b1c
40007b0d:	c02000        	memw
40007b10:	322200        	l32i	a3, a2, 0
40007b13:	22a018        	movi	a2, 24
40007b16:	270302        	bnone	a3, a2, 0x40007b1c
40007b19:	063600        	j	0x40007bf5
40007b1c:	2157fb        	l32r	a2, 0x40006878	; ( 0x3ffe0400 )
40007b1f:	222200        	l32i	a2, a2, 0
40007b22:	56f20c        	bnez	a2, 0x40007bf5
40007b25:	217ffb        	l32r	a2, 0x40006924	; ( 0x3ff44038 )
40007b28:	c02000        	memw
40007b2b:	3802      	l32i.n	a3, a2, 0
40007b2d:	47e30f        	bbsi	a3, 4, 0x40007b40
40007b30:	c02000        	memw
40007b33:	3802      	l32i.n	a3, a2, 0
40007b35:	1cc2      	movi.n	a2, 28
40007b37:	202310        	and	a2, a3, a2
40007b3a:	268202        	beqi	a2, 8, 0x40007b40
40007b3d:	061b00        	j	0x40007bad
40007b40:	0c0a      	movi.n	a10, 0
40007b42:	25a601        	call8	0x400095a4
40007b45:	2159fb        	l32r	a2, 0x400068ac	; ( 0x3f400000 )
40007b48:	0c0a      	movi.n	a10, 0
40007b4a:	cd02      	mov.n	a12, a2
40007b4c:	dd0a      	mov.n	a13, a10
40007b4e:	4c0e      	movi.n	a14, 64
40007b50:	bd0a      	mov.n	a11, a10
40007b52:	0c1f      	movi.n	a15, 1
40007b54:	a5a801        	call8	0x400095e0
40007b57:	312afd        	l32r	a3, 0x40007000	; ( 0x3ff00044 )
40007b5a:	6cf4      	movi.n	a4, -17
40007b5c:	c02000        	memw
40007b5f:	5803      	l32i.n	a5, a3, 0
40007b61:	0c0a      	movi.n	a10, 0
40007b63:	404510        	and	a4, a5, a4
40007b66:	c02000        	memw
40007b69:	426300        	s32i	a4, a3, 0
40007b6c:	25de01        	call8	0x40009950
40007b6f:	bd02      	mov.n	a11, a2
40007b71:	a2a000        	movi	a10, 0
40007b74:	650555        	call8	0x4005cbcc
40007b77:	a0d074        	extui	a13, a10, 0, 8
40007b7a:	b13ffb        	l32r	a11, 0x40006878	; ( 0x3ffe0400 )
40007b7d:	a1abe2        	l32r	a10, 0x4000062c	; ( 0x00001000 )
40007b80:	0c0c      	movi.n	a12, 0
40007b82:	0c1e      	movi.n	a14, 1
40007b84:	2549ff        	call8	0x40007018
40007b87:	16aa06        	beqz	a10, 0x40007bf5
40007b8a:	21cbfe        	l32r	a2, 0x400076b8	; ( 0x3ff5a018 )
40007b8d:	c02000        	memw
40007b90:	2802      	l32i.n	a2, a2, 0
40007b92:	27620e        	bbci	a2, 2, 0x40007ba4
40007b95:	a1bbfe        	l32r	a10, 0x40007684	; ( 0x3ff9ea62 )
40007b98:	b1bcfe        	l32r	a11, 0x40007688	; ( 0x3ff9ea6a )
40007b9b:	c2a173        	movi	a12, 0x173
40007b9e:	651b00        	call8	0x40007d54
40007ba1:	06ffff        	j	0x40007ba1
40007ba4:	a5dd52        	call8	0x4005a980
40007ba7:	861200        	j	0x40007bf5
40007baa to 40007bac  --------- Unknown territory !!!
40007bad:	21c2fe        	l32r	a2, 0x400076b8	; ( 0x3ff5a018 )
40007bb0:	c02000        	memw
40007bb3:	c22200        	l32i	a12, a2, 0
40007bb6:	22a004        	movi	a2, 4
40007bb9:	20cc10        	and	a12, a12, a2
40007bbc:	561c01        	bnez	a12, 0x40007bd1
40007bbf:	a19be2        	l32r	a10, 0x4000062c	; ( 0x00001000 )
40007bc2:	b12dfb        	l32r	a11, 0x40006878	; ( 0x3ffe0400 )
40007bc5:	0c1d      	movi.n	a13, 1
40007bc7:	65d8fe        	call8	0x4000694c
40007bca:	ac7a      	beqz.n	a10, 0x40007bf5
40007bcc:	06f5ff        	j	0x40007ba4
40007bcf to 40007bd0  --------- Unknown territory !!!
40007bd1:	a1acfe        	l32r	a10, 0x40007684	; ( 0x3ff9ea62 )
40007bd4:	b1adfe        	l32r	a11, 0x40007688	; ( 0x3ff9ea6a )
40007bd7:	c2a17f        	movi	a12, 0x17f
40007bda:	a51700        	call8	0x40007d54
40007bdd:	06ffff        	j	0x40007bdd
40007be0 to 40007be0  --------- Unknown territory !!!
40007be1:	a1a8fe        	l32r	a10, 0x40007684	; ( 0x3ff9ea62 )
40007be4:	b1a9fe        	l32r	a11, 0x40007688	; ( 0x3ff9ea6a )
40007be7:	c2a186        	movi	a12, 0x186
40007bea:	a51600        	call8	0x40007d54
40007bed:	06ffff        	j	0x40007bed
40007bf0:	3122fb        	l32r	a3, 0x40006878	; ( 0x3ffe0400 )
40007bf3:	2903      	s32i.n	a2, a3, 0
40007bf5:	21b1fe        	l32r	a2, 0x400076bc	; ( 0x40006840 )
40007bf8:	0c9a      	movi.n	a10, 9
40007bfa:	bd02      	mov.n	a11, a2
40007bfc:	e5b4f8        	call8	0x4000074c
40007bff:	bd02      	mov.n	a11, a2
40007c01:	0c0a      	movi.n	a10, 0
40007c03:	a5b4f8        	call8	0x4000074c
40007c06:	bd02      	mov.n	a11, a2
40007c08:	0c2a      	movi.n	a10, 2
40007c0a:	25b4f8        	call8	0x4000074c
40007c0d:	bd02      	mov.n	a11, a2
40007c0f:	0c3a      	movi.n	a10, 3
40007c11:	a5b3f8        	call8	0x4000074c
40007c14:	bd02      	mov.n	a11, a2
40007c16:	1cca      	movi.n	a10, 28
40007c18:	25b3f8        	call8	0x4000074c
40007c1b:	bd02      	mov.n	a11, a2
40007c1d:	1cda      	movi.n	a10, 29
40007c1f:	e5b2f8        	call8	0x4000074c
40007c22:	bd02      	mov.n	a11, a2
40007c24:	0c8a      	movi.n	a10, 8
40007c26:	65b2f8        	call8	0x4000074c
40007c29:	2113fb        	l32r	a2, 0x40006878	; ( 0x3ffe0400 )
40007c2c:	2802      	l32i.n	a2, a2, 0
40007c2e:	162200        	beqz	a2, 0x40007c34
40007c31:	e00200        	callx8	a2
40007c34:	a1a3fe        	l32r	a10, 0x400076c0	; ( 0x3ff9eae1 )
40007c37:	e51100        	call8	0x40007d54
40007c3a:	2113fb        	l32r	a2, 0x40006888	; ( 0x3ffe0404 )
40007c3d:	2802      	l32i.n	a2, a2, 0
40007c3f:	165200        	beqz	a2, 0x40007c48
40007c42:	e00200        	callx8	a2
40007c45:	860000        	j	0x40007c4b
40007c48:	25a7fe        	call8	0x400066bc
40007c4b:	0c02      	movi.n	a2, 0
40007c4d:	1df0      	retw.n
40007c4f to 40007c4f  --------- Unknown territory !!!
40007c50:	3ffae014	; l32r
40007c54:	3ffae010	; l32r
40007c58:	364100        	entry	a1, 32
40007c5b:	81fdff        	l32r	a8, 0x40007c50	; ( 0x3ffae014 )
40007c5e:	202074        	extui	a2, a2, 0, 8
40007c61:	8808      	l32i.n	a8, a8, 0
40007c63:	165800        	beqz	a8, 0x40007c6c
40007c66:	20a220        	or	a10, a2, a2
40007c69:	e00800        	callx8	a8
40007c6c:	81faff        	l32r	a8, 0x40007c54	; ( 0x3ffae010 )
40007c6f:	8808      	l32i.n	a8, a8, 0
40007c71:	8c38      	beqz.n	a8, 0x40007c78
40007c73:	ad02      	mov.n	a10, a2
40007c75:	e00800        	callx8	a8
40007c78:	1df0      	retw.n
40007c7a to 40007c7b  --------- Unknown territory !!!
40007c7c:	36a100        	entry	a1, 80
40007c7f:	8d04      	mov.n	a8, a4
40007c81:	4d06      	mov.n	a4, a6
40007c83:	306220        	or	a6, a2, a3
40007c86:	ccf6      	bnez.n	a6, 0x40007c99
40007c88:	3c02      	movi.n	a2, 48
40007c8a:	224100        	s8i	a2, a1, 0
40007c8d:	1b91      	addi.n	a9, a1, 1
40007c8f:	2d08      	mov.n	a2, a8
40007c91:	0b41      	addi.n	a4, a1, -1
40007c93:	3d09      	mov.n	a3, a9
40007c95:	c61200        	j	0x40007ce4
40007c98 to 40007c98  --------- Unknown territory !!!
40007c99:	1b71      	addi.n	a7, a1, 1
40007c9b:	506f31        	srai	a6, a5, 31
40007c9e:	e2c7ff        	addi	a14, a7, -1
40007ca1:	20a220        	or	a10, a2, a2
40007ca4:	bd03      	mov.n	a11, a3
40007ca6:	cd05      	mov.n	a12, a5
40007ca8:	dd06      	mov.n	a13, a6
40007caa:	89a1      	s32i.n	a8, a1, 40
40007cac:	7991      	s32i.n	a7, a1, 36
40007cae:	e981      	s32i.n	a14, a1, 32
40007cb0:	e55c05        	call8	0x4000d280
40007cb3:	aaa4      	add.n	a10, a4, a10
40007cb5:	a20a00        	l8ui	a10, a10, 0
40007cb8:	e881      	l32i.n	a14, a1, 32
40007cba:	bd03      	mov.n	a11, a3
40007cbc:	a24e00        	s8i	a10, a14, 0
40007cbf:	cd05      	mov.n	a12, a5
40007cc1:	ad02      	mov.n	a10, a2
40007cc3:	dd06      	mov.n	a13, a6
40007cc5:	253305        	call8	0x4000cff8
40007cc8:	2d0a      	mov.n	a2, a10
40007cca:	a0ab20        	or	a10, a11, a10
40007ccd:	3d0b      	mov.n	a3, a11
40007ccf:	1b77      	addi.n	a7, a7, 1
40007cd1:	88a1      	l32i.n	a8, a1, 40
40007cd3:	9891      	l32i.n	a9, a1, 36
40007cd5:	565afc        	bnez	a10, 0x40007c9e
40007cd8:	c6ecff        	j	0x40007c8f
40007cdb to 40007cdb  --------- Unknown territory !!!
40007cdc:	520300        	l8ui	a5, a3, 0
40007cdf:	524200        	s8i	a5, a2, 0
40007ce2:	1b22      	addi.n	a2, a2, 1
40007ce4:	0b33      	addi.n	a3, a3, -1
40007ce6:	4793f2        	bne	a3, a4, 0x40007cdc
40007ce9:	1029c0        	sub	a2, a9, a1
40007cec:	2a88      	add.n	a8, a8, a2
40007cee:	0c03      	movi.n	a3, 0
40007cf0:	324800        	s8i	a3, a8, 0
40007cf3:	1df0      	retw.n
40007cf5 to 40007d23  --------- Unknown territory !!!
40007d24:	40007cf8	; l32r
40007d28:	364100        	entry	a1, 32
40007d2b:	91feff        	l32r	a9, 0x40007d24	; ( 0x40007cf8 )
40007d2e:	81c8ff        	l32r	a8, 0x40007c50	; ( 0x3ffae014 )
40007d31:	9908      	s32i.n	a9, a8, 0
40007d33:	1df0      	retw.n
40007d35 to 40007d43  --------- Unknown territory !!!
40007d44:	3ff9ee3f	; l32r
40007d48:	3ff9ee46	; l32r
40007d4c:	3ff9c316	; l32r
40007d50:	3ff9c305	; l32r
40007d54:	362101        	entry	a1, 144
40007d57:	39d1      	s32i.n	a3, a1, 52
40007d59:	31bdff        	l32r	a3, 0x40007c50	; ( 0x3ffae014 )
40007d5c:	49e1      	s32i.n	a4, a1, 56
40007d5e:	59f1      	s32i.n	a5, a1, 60
40007d60:	626110        	s32i	a6, a1, 64
40007d63:	726111        	s32i	a7, a1, 68
40007d66:	3803      	l32i.n	a3, a3, 0
40007d68:	568300        	bnez	a3, 0x40007d74
40007d6b:	31baff        	l32r	a3, 0x40007c54	; ( 0x3ffae010 )
40007d6e:	322300        	l32i	a3, a3, 0
40007d71:	16e33d        	beqz	a3, 0x40008153
40007d74:	52c170        	addi	a5, a1, 112
40007d77:	32c130        	addi	a3, a1, 48
40007d7a:	5981      	s32i.n	a5, a1, 32
40007d7c:	0c44      	movi.n	a4, 4
40007d7e:	0c05      	movi.n	a5, 0
40007d80:	3991      	s32i.n	a3, a1, 36
40007d82:	49a1      	s32i.n	a4, a1, 40
40007d84:	3d05      	mov.n	a3, a5
40007d86:	6d05      	mov.n	a6, a5
40007d88:	526114        	s32i	a5, a1, 80
40007d8b:	526115        	s32i	a5, a1, 84
40007d8e:	126116        	s32i	a1, a1, 88
40007d91:	06ee00        	j	0x4000814d
40007d94:	2c59      	movi.n	a9, 37
40007d96:	971a02        	beq	a10, a9, 0x40007d9c
40007d99:	46ea00        	j	0x40008146
40007d9c:	820201        	l8ui	a8, a2, 1
40007d9f:	2cd6      	movi.n	a6, 45
40007da1:	671809        	beq	a8, a6, 0x40007dae
40007da4:	2b62      	addi.n	a6, a2, 2
40007da6:	0c02      	movi.n	a2, 0
40007da8:	226118        	s32i	a2, a1, 96
40007dab:	460200        	j	0x40007db8
40007dae:	0c19      	movi.n	a9, 1
40007db0:	820202        	l8ui	a8, a2, 2
40007db3:	3b62      	addi.n	a6, a2, 3
40007db5:	926118        	s32i	a9, a1, 96
40007db8:	0c02      	movi.n	a2, 0
40007dba:	226117        	s32i	a2, a1, 92
40007dbd:	3c02      	movi.n	a2, 48
40007dbf:	279809        	bne	a8, a2, 0x40007dcc
40007dc2:	0c19      	movi.n	a9, 1
40007dc4:	820600        	l8ui	a8, a6, 0
40007dc7:	926117        	s32i	a9, a1, 92
40007dca:	1b66      	addi.n	a6, a6, 1
40007dcc:	0c07      	movi.n	a7, 0
40007dce:	0c9b      	movi.n	a11, 9
40007dd0:	c60200        	j	0x40007ddf
40007dd3 to 40007dd3  --------- Unknown territory !!!
40007dd4:	7077a0        	addx4	a7, a7, a7
40007dd7:	820600        	l8ui	a8, a6, 0
40007dda:	907790        	addx2	a7, a7, a9
40007ddd:	1b66      	addi.n	a6, a6, 1
40007ddf:	92c8d0        	addi	a9, a8, -48
40007de2:	90a074        	extui	a10, a9, 0, 8
40007de5:	2d06      	mov.n	a2, a6
40007de7:	a7bbe9        	bgeu	a11, a10, 0x40007dd4
40007dea:	2ce9      	movi.n	a9, 46
40007dec:	979821        	bne	a8, a9, 0x40007e11
40007def:	222117        	l32i	a2, a1, 92
40007df2:	820600        	l8ui	a8, a6, 0
40007df5:	1b22      	addi.n	a2, a2, 1
40007df7:	226117        	s32i	a2, a1, 92
40007dfa:	1b66      	addi.n	a6, a6, 1
40007dfc:	0c9a      	movi.n	a10, 9
40007dfe:	060100        	j	0x40007e06
40007e01:	820600        	l8ui	a8, a6, 0
40007e04:	1b66      	addi.n	a6, a6, 1
40007e06:	92c8d0        	addi	a9, a8, -48
40007e09:	909074        	extui	a9, a9, 0, 8
40007e0c:	2d06      	mov.n	a2, a6
40007e0e:	97baef        	bgeu	a10, a9, 0x40007e01
40007e11:	0c09      	movi.n	a9, 0
40007e13:	a2a06c        	movi	a10, 108
40007e16:	6d09      	mov.n	a6, a9
40007e18:	a79815        	bne	a8, a10, 0x40007e31
40007e1b:	820200        	l8ui	a8, a2, 0
40007e1e:	a71806        	beq	a8, a10, 0x40007e28
40007e21:	1b22      	addi.n	a2, a2, 1
40007e23:	0c16      	movi.n	a6, 1
40007e25:	060200        	j	0x40007e31
40007e28:	0c19      	movi.n	a9, 1
40007e2a:	820201        	l8ui	a8, a2, 1
40007e2d:	6d09      	mov.n	a6, a9
40007e2f:	2b22      	addi.n	a2, a2, 2
40007e31:	a2a064        	movi	a10, 100
40007e34:	a71830        	beq	a8, a10, 0x40007e68
40007e37:	873a15        	bltu	a10, a8, 0x40007e50
40007e3a:	5c5a      	movi.n	a10, 85
40007e3c:	a71828        	beq	a8, a10, 0x40007e68
40007e3f:	5c8a      	movi.n	a10, 88
40007e41:	a71823        	beq	a8, a10, 0x40007e68
40007e44:	4c4a      	movi.n	a10, 68
40007e46:	a71802        	beq	a8, a10, 0x40007e4c
40007e49:	463700        	j	0x40007f2a
40007e4c:	060600        	j	0x40007e68
40007e4f to 40007e4f  --------- Unknown territory !!!
40007e50:	a2a075        	movi	a10, 117
40007e53:	a71811        	beq	a8, a10, 0x40007e68
40007e56:	a2a078        	movi	a10, 120
40007e59:	a7180b        	beq	a8, a10, 0x40007e68
40007e5c:	62a070        	movi	a6, 112
40007e5f:	679802        	bne	a8, a6, 0x40007e65
40007e62:	86bc00        	j	0x40008158
40007e65:	463000        	j	0x40007f2a
40007e68:	ace9      	beqz.n	a9, 0x40007e9a
40007e6a:	460000        	j	0x40007e6f
40007e6d:	0c16      	movi.n	a6, 1
40007e6f:	7b44      	addi.n	a4, a4, 7
40007e71:	7c89      	movi.n	a9, -8
40007e73:	90a410        	and	a10, a4, a9
40007e76:	8b4a      	addi.n	a4, a10, 8
40007e78:	1c8b      	movi.n	a11, 24
40007e7a:	92c130        	addi	a9, a1, 48
40007e7d:	47ab07        	bge	a11, a4, 0x40007e88
40007e80:	a72b01        	blt	a11, a10, 0x40007e85
40007e83:	2c84      	movi.n	a4, 40
40007e85:	92c170        	addi	a9, a1, 112
40007e88:	4a99      	add.n	a9, a9, a4
40007e8a:	92c9f8        	addi	a9, a9, -8
40007e8d:	a809      	l32i.n	a10, a9, 0
40007e8f:	9819      	l32i.n	a9, a9, 4
40007e91:	a26114        	s32i	a10, a1, 80
40007e94:	926115        	s32i	a9, a1, 84
40007e97:	c61400        	j	0x40007eee
40007e9a:	acc6      	beqz.n	a6, 0x40007eca
40007e9c:	4b64      	addi.n	a6, a4, 4
40007e9e:	a2a018        	movi	a10, 24
40007ea1:	92c130        	addi	a9, a1, 48
40007ea4:	67aa08        	bge	a10, a6, 0x40007eb0
40007ea7:	472a02        	blt	a10, a4, 0x40007ead
40007eaa:	62a024        	movi	a6, 36
40007ead:	92c170        	addi	a9, a1, 112
40007eb0:	6a99      	add.n	a9, a9, a6
40007eb2:	92c9fc        	addi	a9, a9, -4
40007eb5:	4809      	l32i.n	a4, a9, 0
40007eb7:	426114        	s32i	a4, a1, 80
40007eba:	404f31        	srai	a4, a4, 31
40007ebd:	426115        	s32i	a4, a1, 84
40007ec0:	4d06      	mov.n	a4, a6
40007ec2:	0c16      	movi.n	a6, 1
40007ec4:	860900        	j	0x40007eee
40007ec7 to 40007ec9  --------- Unknown territory !!!
40007eca:	4b94      	addi.n	a9, a4, 4
40007ecc:	1c8b      	movi.n	a11, 24
40007ece:	a2c130        	addi	a10, a1, 48
40007ed1:	97ab07        	bge	a11, a9, 0x40007edc
40007ed4:	472b01        	blt	a11, a4, 0x40007ed9
40007ed7:	2c49      	movi.n	a9, 36
40007ed9:	a2c170        	addi	a10, a1, 112
40007edc:	9aaa      	add.n	a10, a10, a9
40007ede:	a2cafc        	addi	a10, a10, -4
40007ee1:	480a      	l32i.n	a4, a10, 0
40007ee3:	426114        	s32i	a4, a1, 80
40007ee6:	404f31        	srai	a4, a4, 31
40007ee9:	426115        	s32i	a4, a1, 84
40007eec:	4d09      	mov.n	a4, a9
40007eee:	a2afdf        	movi	a10, -33
40007ef1:	a0a810        	and	a10, a8, a10
40007ef4:	4c49      	movi.n	a9, 68
40007ef6:	979a26        	bne	a10, a9, 0x40007f20
40007ef9:	922115        	l32i	a9, a1, 84
40007efc:	0c06      	movi.n	a6, 0
40007efe:	67a92a        	bge	a9, a6, 0x40007f2c
40007f01:	a22114        	l32i	a10, a1, 80
40007f04:	b22115        	l32i	a11, a1, 84
40007f07:	a09060        	neg	a9, a10
40007f0a:	0c1a      	movi.n	a10, 1
40007f0c:	906a93        	movnez	a6, a10, a9
40007f0f:	b0a060        	neg	a10, a11
40007f12:	606ac0        	sub	a6, a10, a6
40007f15:	626115        	s32i	a6, a1, 84
40007f18:	926114        	s32i	a9, a1, 80
40007f1b:	2cd6      	movi.n	a6, 45
40007f1d:	c60200        	j	0x40007f2c
40007f20:	8c06      	beqz.n	a6, 0x40007f24
40007f22:	0c06      	movi.n	a6, 0
40007f24:	626115        	s32i	a6, a1, 84
40007f27:	460000        	j	0x40007f2c
40007f2a:	0c06      	movi.n	a6, 0
40007f2c:	5c89      	movi.n	a9, 88
40007f2e:	971877        	beq	a8, a9, 0x40007fa9
40007f31:	873927        	bltu	a9, a8, 0x40007f5c
40007f34:	4c49      	movi.n	a9, 68
40007f36:	97186f        	beq	a8, a9, 0x40007fa9
40007f39:	873912        	bltu	a9, a8, 0x40007f4f
40007f3c:	2c59      	movi.n	a9, 37
40007f3e:	979802        	bne	a8, a9, 0x40007f44
40007f41:	064c00        	j	0x40008075
40007f44:	4c39      	movi.n	a9, 67
40007f46:	979802        	bne	a8, a9, 0x40007f4c
40007f49:	864000        	j	0x4000804f
40007f4c:	464b00        	j	0x4000807d
40007f4f:	5c39      	movi.n	a9, 83
40007f51:	979802        	bne	a8, a9, 0x40007f57
40007f54:	862f00        	j	0x40008016
40007f57:	5c59      	movi.n	a9, 85
40007f59:	060500        	j	0x40007f71
40007f5c:	92a070        	movi	a9, 112
40007f5f:	971831        	beq	a8, a9, 0x40007f94
40007f62:	873916        	bltu	a9, a8, 0x40007f7c
40007f65:	92a063        	movi	a9, 99
40007f68:	979802        	bne	a8, a9, 0x40007f6e
40007f6b:	063800        	j	0x4000804f
40007f6e:	92a064        	movi	a9, 100
40007f71:	971802        	beq	a8, a9, 0x40007f77
40007f74:	464100        	j	0x4000807d
40007f77:	860b00        	j	0x40007fa9
40007f7a to 40007f7b  --------- Unknown territory !!!
40007f7c:	92a075        	movi	a9, 117
40007f7f:	971826        	beq	a8, a9, 0x40007fa9
40007f82:	92a078        	movi	a9, 120
40007f85:	971820        	beq	a8, a9, 0x40007fa9
40007f88:	92a073        	movi	a9, 115
40007f8b:	979802        	bne	a8, a9, 0x40007f91
40007f8e:	062100        	j	0x40008016
40007f91:	063a00        	j	0x4000807d
40007f94:	3c0a      	movi.n	a10, 48
40007f96:	25ccff        	call8	0x40007c58
40007f99:	a2a078        	movi	a10, 120
40007f9c:	0c15      	movi.n	a5, 1
40007f9e:	a5cbff        	call8	0x40007c58
40007fa1:	0c87      	movi.n	a7, 8
40007fa3:	526117        	s32i	a5, a1, 92
40007fa6:	861100        	j	0x40007ff0
40007fa9:	92a064        	movi	a9, 100
40007fac:	971830        	beq	a8, a9, 0x40007fe0
40007faf:	873915        	bltu	a9, a8, 0x40007fc8
40007fb2:	5c59      	movi.n	a9, 85
40007fb4:	971828        	beq	a8, a9, 0x40007fe0
40007fb7:	5c89      	movi.n	a9, 88
40007fb9:	971848        	beq	a8, a9, 0x40008005
40007fbc:	4c49      	movi.n	a9, 68
40007fbe:	971802        	beq	a8, a9, 0x40007fc4
40007fc1:	c63300        	j	0x40008094
40007fc4:	060600        	j	0x40007fe0
40007fc7 to 40007fc7  --------- Unknown territory !!!
40007fc8:	92a075        	movi	a9, 117
40007fcb:	971811        	beq	a8, a9, 0x40007fe0
40007fce:	92a078        	movi	a9, 120
40007fd1:	97181b        	beq	a8, a9, 0x40007ff0
40007fd4:	92a070        	movi	a9, 112
40007fd7:	971802        	beq	a8, a9, 0x40007fdd
40007fda:	862d00        	j	0x40008094
40007fdd:	c60300        	j	0x40007ff0
40007fe0:	a22114        	l32i	a10, a1, 80
40007fe3:	b22115        	l32i	a11, a1, 84
40007fe6:	cd01      	mov.n	a12, a1
40007fe8:	0cad      	movi.n	a13, 10
40007fea:	e157ff        	l32r	a14, 0x40007d48	; ( 0x3ff9ee46 )
40007fed:	060300        	j	0x40007ffd
40007ff0:	a22114        	l32i	a10, a1, 80
40007ff3:	b22115        	l32i	a11, a1, 84
40007ff6:	e155ff        	l32r	a14, 0x40007d4c	; ( 0x3ff9c316 )
40007ff9:	cd01      	mov.n	a12, a1
40007ffb:	1c0d      	movi.n	a13, 16
40007ffd:	e5c7ff        	call8	0x40007c7c
40008000:	5d0a      	mov.n	a5, a10
40008002:	862300        	j	0x40008094
40008005:	a22114        	l32i	a10, a1, 80
40008008:	b22115        	l32i	a11, a1, 84
4000800b:	cd01      	mov.n	a12, a1
4000800d:	1c0d      	movi.n	a13, 16
4000800f:	e150ff        	l32r	a14, 0x40007d50	; ( 0x3ff9c305 )
40008012:	c6f9ff        	j	0x40007ffd
40008015 to 40008015  --------- Unknown territory !!!
40008016:	4b84      	addi.n	a8, a4, 4
40008018:	1c89      	movi.n	a9, 24
4000801a:	52c130        	addi	a5, a1, 48
4000801d:	87a907        	bge	a9, a8, 0x40008028
40008020:	472901        	blt	a9, a4, 0x40008025
40008023:	2c48      	movi.n	a8, 36
40008025:	52c170        	addi	a5, a1, 112
40008028:	8a55      	add.n	a5, a5, a8
4000802a:	52c5fc        	addi	a5, a5, -4
4000802d:	5805      	l32i.n	a5, a5, 0
4000802f:	4145ff        	l32r	a4, 0x40007d44	; ( 0x3ff9ee3f )
40008032:	505483        	moveqz	a5, a4, a5
40008035:	526116        	s32i	a5, a1, 88
40008038:	0c05      	movi.n	a5, 0
4000803a:	460000        	j	0x4000803f
4000803d:	1b55      	addi.n	a5, a5, 1
4000803f:	922116        	l32i	a9, a1, 88
40008042:	5a49      	add.n	a4, a9, a5
40008044:	420400        	l8ui	a4, a4, 0
40008047:	5624ff        	bnez	a4, 0x4000803d
4000804a:	4d08      	mov.n	a4, a8
4000804c:	c61100        	j	0x40008097
4000804f:	4b64      	addi.n	a6, a4, 4
40008051:	82a018        	movi	a8, 24
40008054:	72c130        	addi	a7, a1, 48
40008057:	67a808        	bge	a8, a6, 0x40008063
4000805a:	472802        	blt	a8, a4, 0x40008060
4000805d:	62a024        	movi	a6, 36
40008060:	72c170        	addi	a7, a1, 112
40008063:	6a77      	add.n	a7, a7, a6
40008065:	72c7fc        	addi	a7, a7, -4
40008068:	a20700        	l8ui	a10, a7, 0
4000806b:	1b33      	addi.n	a3, a3, 1
4000806d:	a5beff        	call8	0x40007c58
40008070:	4d06      	mov.n	a4, a6
40008072:	c63500        	j	0x4000814d
40008075:	2c5a      	movi.n	a10, 37
40008077:	25beff        	call8	0x40007c58
4000807a:	460600        	j	0x40008097
4000807d:	2c5a      	movi.n	a10, 37
4000807f:	82611a        	s32i	a8, a1, 104
40008082:	65bdff        	call8	0x40007c58
40008085:	82211a        	l32i	a8, a1, 104
40008088:	2b33      	addi.n	a3, a3, 2
4000808a:	80a820        	or	a10, a8, a8
4000808d:	a5bcff        	call8	0x40007c58
40008090:	c60000        	j	0x40008097
40008093 to 40008093  --------- Unknown territory !!!
40008094:	126116        	s32i	a1, a1, 88
40008097:	5077c0        	sub	a7, a7, a5
4000809a:	8ca6      	beqz.n	a6, 0x400080a8
4000809c:	822117        	l32i	a8, a1, 92
4000809f:	0b77      	addi.n	a7, a7, -1
400080a1:	dc08      	bnez.n	a8, 0x400080b5
400080a3:	2c08      	movi.n	a8, 32
400080a5:	c60500        	j	0x400080c0
400080a8:	a22117        	l32i	a10, a1, 92
400080ab:	3c08      	movi.n	a8, 48
400080ad:	2c09      	movi.n	a9, 32
400080af:	a08983        	moveqz	a8, a9, a10
400080b2:	860200        	j	0x400080c0
400080b5:	ad06      	mov.n	a10, a6
400080b7:	25baff        	call8	0x40007c58
400080ba:	1b33      	addi.n	a3, a3, 1
400080bc:	0c06      	movi.n	a6, 0
400080be:	3c08      	movi.n	a8, 48
400080c0:	922118        	l32i	a9, a1, 96
400080c3:	ec69      	bnez.n	a9, 0x400080ed
400080c5:	9d07      	mov.n	a9, a7
400080c7:	860400        	j	0x400080dd
400080ca:	ad08      	mov.n	a10, a8
400080cc:	82611a        	s32i	a8, a1, 104
400080cf:	926119        	s32i	a9, a1, 100
400080d2:	65b8ff        	call8	0x40007c58
400080d5:	922119        	l32i	a9, a1, 100
400080d8:	82211a        	l32i	a8, a1, 104
400080db:	0b99      	addi.n	a9, a9, -1
400080dd:	e619e9        	bgei	a9, 1, 0x400080ca
400080e0:	0c08      	movi.n	a8, 0
400080e2:	808753        	max	a8, a7, a8
400080e5:	0b77      	addi.n	a7, a7, -1
400080e7:	803380        	add	a3, a3, a8
400080ea:	8077c0        	sub	a7, a7, a8
400080ed:	167600        	beqz	a6, 0x400080f8
400080f0:	60a620        	or	a10, a6, a6
400080f3:	65b6ff        	call8	0x40007c58
400080f6:	1b33      	addi.n	a3, a3, 1
400080f8:	622116        	l32i	a6, a1, 88
400080fb:	5a86      	add.n	a8, a6, a5
400080fd:	460300        	j	0x4000810e
40008100:	a20600        	l8ui	a10, a6, 0
40008103:	82611a        	s32i	a8, a1, 104
40008106:	25b5ff        	call8	0x40007c58
40008109:	82211a        	l32i	a8, a1, 104
4000810c:	1b66      	addi.n	a6, a6, 1
4000810e:	6098c0        	sub	a9, a8, a6
40008111:	e619eb        	bgei	a9, 1, 0x40008100
40008114:	b22116        	l32i	a11, a1, 88
40008117:	0c06      	movi.n	a6, 0
40008119:	606553        	max	a6, a5, a6
4000811c:	0b55      	addi.n	a5, a5, -1
4000811e:	6abb      	add.n	a11, a11, a6
40008120:	6a33      	add.n	a3, a3, a6
40008122:	6055c0        	sub	a5, a5, a6
40008125:	622118        	l32i	a6, a1, 96
40008128:	b26116        	s32i	a11, a1, 88
4000812b:	9ce6      	beqz.n	a6, 0x4000814d
4000812d:	6d07      	mov.n	a6, a7
4000812f:	860100        	j	0x40008139
40008132:	2c0a      	movi.n	a10, 32
40008134:	25b2ff        	call8	0x40007c58
40008137:	0b66      	addi.n	a6, a6, -1
40008139:	e616f5        	bgei	a6, 1, 0x40008132
4000813c:	0c06      	movi.n	a6, 0
4000813e:	607753        	max	a7, a7, a6
40008141:	7a33      	add.n	a3, a3, a7
40008143:	860100        	j	0x4000814d
40008146:	1b22      	addi.n	a2, a2, 1
40008148:	e5b0ff        	call8	0x40007c58
4000814b:	1b33      	addi.n	a3, a3, 1
4000814d:	a20200        	l8ui	a10, a2, 0
40008150:	560ac4        	bnez	a10, 0x40007d94
40008153:	2d03      	mov.n	a2, a3
40008155:	1df0      	retw.n
40008157 to 40008157  --------- Unknown territory !!!
40008158:	5619d1        	bnez	a9, 0x40007e6d
4000815b:	464fff        	j	0x40007e9c
4000815e to 4000815f  --------- Unknown territory !!!
40008160:	3ff48100	; l32r
40008164:	fff001ff	; l32r
40008168:	800fffff	; l32r
4000816c:	3ff48104	; l32r
40008170:	364100        	entry	a1, 32
40008173:	81fbff        	l32r	a8, 0x40008160	; ( 0x3ff48100 )
40008176:	21fbff        	l32r	a2, 0x40008164	; ( 0xfff001ff )
40008179:	c02000        	memw
4000817c:	9808      	l32i.n	a9, a8, 0
4000817e:	202910        	and	a2, a9, a2
40008181:	c02000        	memw
40008184:	2908      	s32i.n	a2, a8, 0
40008186:	c02000        	memw
40008189:	9808      	l32i.n	a9, a8, 0
4000818b:	21f7ff        	l32r	a2, 0x40008168	; ( 0x800fffff )
4000818e:	202910        	and	a2, a9, a2
40008191:	9154e1        	l32r	a9, 0x400006e4	; ( 0x7ff00000 )
40008194:	902220        	or	a2, a2, a9
40008197:	c02000        	memw
4000819a:	2908      	s32i.n	a2, a8, 0
4000819c:	c02000        	memw
4000819f:	9808      	l32i.n	a9, a8, 0
400081a1:	22a100        	movi	a2, 0x100
400081a4:	202920        	or	a2, a9, a2
400081a7:	c02000        	memw
400081aa:	2908      	s32i.n	a2, a8, 0
400081ac:	c02000        	memw
400081af:	2808      	l32i.n	a2, a8, 0
400081b1:	d672ff        	bgez	a2, 0x400081ac
400081b4:	c02000        	memw
400081b7:	9808      	l32i.n	a9, a8, 0
400081b9:	22aeff        	movi	a2, 0xfffffeff
400081bc:	202910        	and	a2, a9, a2
400081bf:	c02000        	memw
400081c2:	2908      	s32i.n	a2, a8, 0
400081c4:	21eaff        	l32r	a2, 0x4000816c	; ( 0x3ff48104 )
400081c7:	c02000        	memw
400081ca:	2802      	l32i.n	a2, a2, 0
400081cc:	1df0      	retw.n
400081ce to 400081cf  --------- Unknown territory !!!
400081d0:	3ff48034	; l32r
400081d4:	364100        	entry	a1, 32
400081d7:	81feff        	l32r	a8, 0x400081d0	; ( 0x3ff48034 )
400081da:	cca2      	bnez.n	a2, 0x400081e8
400081dc:	c02000        	memw
400081df:	2808      	l32i.n	a2, a8, 0
400081e1:	202054        	extui	a2, a2, 0, 6
400081e4:	1df0      	retw.n
400081e6 to 400081e7  --------- Unknown territory !!!
400081e8:	c02000        	memw
400081eb:	2808      	l32i.n	a2, a8, 0
400081ed:	202654        	extui	a2, a2, 6, 6
400081f0:	1df0      	retw.n
400081f2 to 40008203  --------- Unknown territory !!!
40008204:	3ff480bc	; l32r
40008208 to 40008217  --------- Unknown territory !!!
40008218:	3ff480b8	; l32r
4000821c:	364100        	entry	a1, 32
4000821f:	91feff        	l32r	a9, 0x40008218	; ( 0x3ff480b8 )
40008222:	c02000        	memw
40008225:	8809      	l32i.n	a8, a9, 0
40008227:	3d09      	mov.n	a3, a9
40008229:	8902      	s32i.n	a8, a2, 0
4000822b:	166801        	beqz	a8, 0x40008245
4000822e:	25f4ff        	call8	0x40008170
40008231:	81f4ff        	l32r	a8, 0x40008204	; ( 0x3ff480bc )
40008234:	c02000        	memw
40008237:	9808      	l32i.n	a9, a8, 0
40008239:	0c08      	movi.n	a8, 0
4000823b:	971a01        	beq	a10, a9, 0x40008240
4000823e:	8902      	s32i.n	a8, a2, 0
40008240:	c02000        	memw
40008243:	8903      	s32i.n	a8, a3, 0
40008245:	1df0      	retw.n
40008247 to 40008247  --------- Unknown territory !!!
40008248:	3ff48000	; l32r
4000824c:	364100        	entry	a1, 32
4000824f:	81feff        	l32r	a8, 0x40008248	; ( 0x3ff48000 )
40008252:	91d2e0        	l32r	a9, 0x4000059c	; ( 0x80000000 )
40008255:	c02000        	memw
40008258:	a808      	l32i.n	a10, a8, 0
4000825a:	909a20        	or	a9, a10, a9
4000825d:	c02000        	memw
40008260:	9908      	s32i.n	a9, a8, 0
40008262:	1df0      	retw.n
40008264 to 4000852f  --------- Unknown territory !!!
40008530:	3ffe01e0	; l32r
40008534:	364100        	entry	a1, 32
40008537:	a5b103        	call8	0x4000c050
4000853a:	81fdff        	l32r	a8, 0x40008530	; ( 0x3ffe01e0 )
4000853d:	3d0a      	mov.n	a3, a10
4000853f:	8808      	l32i.n	a8, a8, 0
40008541:	802282        	mull	a2, a2, a8
40008544:	a5b003        	call8	0x4000c050
40008547:	30aac0        	sub	a10, a10, a3
4000854a:	273af6        	bltu	a10, a2, 0x40008544
4000854d:	1df0      	retw.n
4000854f to 40008567  --------- Unknown territory !!!
40008568:	3ff5f06c	; l32r
4000856c to 4000857b  --------- Unknown territory !!!
4000857c:	018cba80	; l32r
40008580:	3ff480b4	; l32r
40008584:	0000ffff	; l32r
40008588:	364100        	entry	a1, 32
4000858b:	21f7ff        	l32r	a2, 0x40008568	; ( 0x3ff5f06c )
4000858e:	c02000        	memw
40008591:	222200        	l32i	a2, a2, 0
40008594:	a51700        	call8	0x40008710
40008597:	202741        	srli	a2, a2, 7
4000859a:	b08211        	slli	a8, a2, 5
4000859d:	2088c0        	sub	a8, a8, a2
400085a0:	a09811        	slli	a9, a8, 6
400085a3:	8089c0        	sub	a8, a9, a8
400085a6:	2028b0        	addx8	a2, a8, a2
400085a9:	91ccf5        	l32r	a9, 0x40005cdc	; ( 0xcccccccd )
400085ac:	a0a282        	mull	a10, a2, a10
400085af:	81f3ff        	l32r	a8, 0x4000857c	; ( 0x018cba80 )
400085b2:	902aa2        	muluh	a2, a10, a9
400085b5:	91f2ff        	l32r	a9, 0x40008580	; ( 0x3ff480b4 )
400085b8:	202541        	srli	a2, a2, 5
400085bb:	202883        	moveqz	a2, a8, a2
400085be:	c02000        	memw
400085c1:	822900        	l32i	a8, a9, 0
400085c4:	c02000        	memw
400085c7:	922900        	l32i	a9, a9, 0
400085ca:	8080f5        	extui	a8, a8, 16, 16
400085cd:	9090f4        	extui	a9, a9, 0, 16
400085d0:	97980c        	bne	a8, a9, 0x400085e0
400085d3:	8c98      	beqz.n	a8, 0x400085e0
400085d5:	91ebff        	l32r	a9, 0x40008584	; ( 0x0000ffff )
400085d8:	971804        	beq	a8, a9, 0x400085e0
400085db:	402811        	slli	a2, a8, 12
400085de:	1df0      	retw.n
400085e0:	208c41        	srli	a8, a2, 12
400085e3:	009811        	slli	a9, a8, 16
400085e6:	808920        	or	a8, a9, a8
400085e9:	91e5ff        	l32r	a9, 0x40008580	; ( 0x3ff480b4 )
400085ec:	c02000        	memw
400085ef:	8909      	s32i.n	a8, a9, 0
400085f1:	1df0      	retw.n
400085f3 to 4000864b  --------- Unknown territory !!!
4000864c:	3ff5a014	; l32r
40008650:	000fffff	; l32r
40008654:	3ff5a00c	; l32r
40008658:	364100        	entry	a1, 32
4000865b:	21fcff        	l32r	a2, 0x4000864c	; ( 0x3ff5a014 )
4000865e:	0c19      	movi.n	a9, 1
40008660:	c02000        	memw
40008663:	8802      	l32i.n	a8, a2, 0
40008665:	21faff        	l32r	a2, 0x40008650	; ( 0x000fffff )
40008668:	20a810        	and	a10, a8, a2
4000866b:	20bac0        	sub	a11, a10, a2
4000866e:	0c02      	movi.n	a2, 0
40008670:	b02983        	moveqz	a2, a9, a11
40008673:	202074        	extui	a2, a2, 0, 8
40008676:	56c208        	bnez	a2, 0x40008706
40008679:	a02983        	moveqz	a2, a9, a10
4000867c:	566208        	bnez	a2, 0x40008706
4000867f:	21f5ff        	l32r	a2, 0x40008654	; ( 0x3ff5a00c )
40008682:	808044        	extui	a8, a8, 0, 5
40008685:	c02000        	memw
40008688:	c802      	l32i.n	a12, a2, 0
4000868a:	1cd2      	movi.n	a2, 29
4000868c:	a09544        	extui	a9, a10, 5, 5
4000868f:	a0ba44        	extui	a11, a10, 10, 5
40008692:	c0c444        	extui	a12, a12, 4, 5
40008695:	a0af74        	extui	a10, a10, 15, 8
40008698:	87b201        	bgeu	a2, a8, 0x4000869d
4000869b:	2b88      	addi.n	a8, a8, 2
4000869d:	97b205        	bgeu	a2, a9, 0x400086a6
400086a0:	92c902        	addi	a9, a9, 2
400086a3:	909074        	extui	a9, a9, 0, 8
400086a6:	1cd2      	movi.n	a2, 29
400086a8:	b7b204        	bgeu	a2, a11, 0x400086b0
400086ab:	2bbb      	addi.n	a11, a11, 2
400086ad:	b0b074        	extui	a11, a11, 0, 8
400086b0:	a7b204        	bgeu	a2, a10, 0x400086b8
400086b3:	2baa      	addi.n	a10, a10, 2
400086b5:	a0a074        	extui	a10, a10, 0, 8
400086b8:	1cd2      	movi.n	a2, 29
400086ba:	c7b204        	bgeu	a2, a12, 0x400086c2
400086bd:	2bcc      	addi.n	a12, a12, 2
400086bf:	c0c074        	extui	a12, a12, 0, 8
400086c2:	90e8c0        	sub	a14, a8, a9
400086c5:	0c1d      	movi.n	a13, 1
400086c7:	0c02      	movi.n	a2, 0
400086c9:	e02d83        	moveqz	a2, a13, a14
400086cc:	202074        	extui	a2, a2, 0, 8
400086cf:	fc32      	bnez.n	a2, 0x40008706
400086d1:	b0e8c0        	sub	a14, a8, a11
400086d4:	e02d83        	moveqz	a2, a13, a14
400086d7:	ecb2      	bnez.n	a2, 0x40008706
400086d9:	a0e8c0        	sub	a14, a8, a10
400086dc:	e02d83        	moveqz	a2, a13, a14
400086df:	ec32      	bnez.n	a2, 0x40008706
400086e1:	b0e9c0        	sub	a14, a9, a11
400086e4:	e02d83        	moveqz	a2, a13, a14
400086e7:	dcb2      	bnez.n	a2, 0x40008706
400086e9:	a7191b        	beq	a9, a10, 0x40008708
400086ec:	a02911        	slli	a2, a9, 6
400086ef:	802220        	or	a2, a2, a8
400086f2:	40bb11        	slli	a11, a11, 12
400086f5:	b02220        	or	a2, a2, a11
400086f8:	e0aa01        	slli	a10, a10, 18
400086fb:	a02220        	or	a2, a2, a10
400086fe:	80cc01        	slli	a12, a12, 24
40008701:	c02220        	or	a2, a2, a12
40008704:	1df0      	retw.n
40008706:	0c02      	movi.n	a2, 0
40008708:	1df0      	retw.n
4000870a to 4000870b  --------- Unknown territory !!!
4000870c:	3ff5a010	; l32r
40008710:	364100        	entry	a1, 32
40008713:	21feff        	l32r	a2, 0x4000870c	; ( 0x3ff5a010 )
40008716:	c02000        	memw
40008719:	2802      	l32i.n	a2, a2, 0
4000871b:	202074        	extui	a2, a2, 0, 8
4000871e:	1df0      	retw.n
40008720:	3ffe019c	; l32r
40008724:	00000800	; l32r
40008728:	3ffe0050	; l32r
4000872c:	3ff49058	; l32r
40008730:	00004000	; l32r
40008734:	3ff00190	; l32r
40008738:	364100        	entry	a1, 32
4000873b:	203074        	extui	a3, a2, 0, 8
4000873e:	30a320        	or	a10, a3, a3
40008741:	e5c700        	call8	0x400093c0
40008744:	21f7ff        	l32r	a2, 0x40008720	; ( 0x3ffe019c )
40008747:	42220c        	l32i	a4, a2, 48
4000874a:	f6241c        	bgeui	a4, 2, 0x4000876a
4000874d:	0c1b      	movi.n	a11, 1
4000874f:	ad03      	mov.n	a10, a3
40008751:	258e00        	call8	0x40009034
40008754:	a040f4        	extui	a4, a10, 0, 16
40008757:	bd0a      	mov.n	a11, a10
40008759:	cc14      	bnez.n	a4, 0x4000875e
4000875b:	462600        	j	0x400087f8
4000875e:	ad03      	mov.n	a10, a3
40008760:	b0b0f4        	extui	a11, a11, 0, 16
40008763:	0c24      	movi.n	a4, 2
40008765:	659600        	call8	0x400090cc
40008768:	49c2      	s32i.n	a4, a2, 48
4000876a:	21d0fb        	l32r	a2, 0x400076ac	; ( 0x3ffc0000 )
4000876d:	b109ec        	l32r	a11, 0x40003794	; ( 0x00002000 )
40008770:	ad02      	mov.n	a10, a2
40008772:	c2a001        	movi	a12, 1
40008775:	65dd00        	call8	0x4000954c
40008778:	56ca07        	bnez	a10, 0x400087f8
4000877b:	821200        	l16ui	a8, a2, 0
4000877e:	41e9ff        	l32r	a4, 0x40008724	; ( 0x00000800 )
40008781:	479873        	bne	a8, a4, 0x400087f8
40008784:	81e9ff        	l32r	a8, 0x40008728	; ( 0x3ffe0050 )
40008787:	0c14      	movi.n	a4, 1
40008789:	424800        	s8i	a4, a8, 0
4000878c:	0c44      	movi.n	a4, 4
4000878e:	424802        	s8i	a4, a8, 2
40008791:	0c84      	movi.n	a4, 8
40008793:	424801        	s8i	a4, a8, 1
40008796:	9822      	l32i.n	a9, a2, 8
40008798:	a24803        	s8i	a10, a8, 3
4000879b:	902874        	extui	a2, a9, 8, 8
4000879e:	924804        	s8i	a9, a8, 4
400087a1:	224805        	s8i	a2, a8, 5
400087a4:	902075        	extui	a2, a9, 16, 8
400087a7:	909875        	extui	a9, a9, 24, 8
400087aa:	224806        	s8i	a2, a8, 6
400087ad:	924807        	s8i	a9, a8, 7
400087b0:	a24808        	s8i	a10, a8, 8
400087b3:	a24809        	s8i	a10, a8, 9
400087b6:	4d08      	mov.n	a4, a8
400087b8:	9c83      	beqz.n	a3, 0x400087d4
400087ba:	21dcff        	l32r	a2, 0x4000872c	; ( 0x3ff49058 )
400087bd:	81bdfb        	l32r	a8, 0x400076b4	; ( 0xffff8fff )
400087c0:	c02000        	memw
400087c3:	922200        	l32i	a9, a2, 0
400087c6:	808910        	and	a8, a9, a8
400087c9:	91d9ff        	l32r	a9, 0x40008730	; ( 0x00004000 )
400087cc:	908820        	or	a8, a8, a9
400087cf:	c02000        	memw
400087d2:	8902      	s32i.n	a8, a2, 0
400087d4:	0c82      	movi.n	a2, 8
400087d6:	40a420        	or	a10, a4, a4
400087d9:	b2a00c        	movi	a11, 12
400087dc:	65ba00        	call8	0x40009384
400087df:	661a19        	bnei	a10, 1, 0x400087fc
400087e2:	162301        	beqz	a3, 0x400087f8
400087e5:	21d1ff        	l32r	a2, 0x4000872c	; ( 0x3ff49058 )
400087e8:	31b3fb        	l32r	a3, 0x400076b4	; ( 0xffff8fff )
400087eb:	c02000        	memw
400087ee:	4802      	l32i.n	a4, a2, 0
400087f0:	303410        	and	a3, a4, a3
400087f3:	c02000        	memw
400087f6:	3902      	s32i.n	a3, a2, 0
400087f8:	0c02      	movi.n	a2, 0
400087fa:	1df0      	retw.n
400087fc:	0b22      	addi.n	a2, a2, -1
400087fe:	5642fd        	bnez	a2, 0x400087d6
40008801:	0c22      	movi.n	a2, 2
40008803:	dc13      	bnez.n	a3, 0x40008818
40008805:	cd03      	mov.n	a12, a3
40008807:	3c4a      	movi.n	a10, 52
40008809:	1c1b      	movi.n	a11, 17
4000880b:	256d01        	call8	0x40009edc
4000880e:	31c9ff        	l32r	a3, 0x40008734	; ( 0x3ff00190 )
40008811:	1c04      	movi.n	a4, 16
40008813:	c02000        	memw
40008816:	4903      	s32i.n	a4, a3, 0
40008818:	1df0      	retw.n
4000881a to 40008cdb  --------- Unknown territory !!!
40008cdc:	3ffc4000	; l32r
40008ce0:	3ff9bec4	; l32r
40008ce4 to 40008ce7  --------- Unknown territory !!!
40008ce8:	36c100        	entry	a1, 96
40008ceb:	518ffe        	l32r	a5, 0x40008728	; ( 0x3ffe0050 )
40008cee:	72a001        	movi	a7, 1
40008cf1:	724500        	s8i	a7, a5, 0
40008cf4:	72a004        	movi	a7, 4
40008cf7:	62a000        	movi	a6, 0
40008cfa:	724502        	s8i	a7, a5, 2
40008cfd:	71f7ff        	l32r	a7, 0x40008cdc	; ( 0x3ffc4000 )
40008d00:	6981      	s32i.n	a6, a1, 32
40008d02:	6971      	s32i.n	a6, a1, 28
40008d04:	624503        	s8i	a6, a5, 3
40008d07:	6961      	s32i.n	a6, a1, 24
40008d09:	6967      	s32i.n	a6, a7, 24
40008d0b:	2c0a      	movi.n	a10, 32
40008d0d:	a5affd        	call8	0x40006808
40008d10:	3030f4        	extui	a3, a3, 0, 16
40008d13:	468600        	j	0x40008f30
40008d16:	ad02      	mov.n	a10, a2
40008d18:	bd03      	mov.n	a11, a3
40008d1a:	0c0c      	movi.n	a12, 0
40008d1c:	e58200        	call8	0x4000954c
40008d1f:	661a09        	bnei	a10, 1, 0x40008d2c
40008d22:	2c0a      	movi.n	a10, 32
40008d24:	65adfd        	call8	0x400067fc
40008d27:	0c12      	movi.n	a2, 1
40008d29:	1df0      	retw.n
40008d2b to 40008d2b  --------- Unknown territory !!!
40008d2c:	720200        	l8ui	a7, a2, 0
40008d2f:	8c17      	beqz.n	a7, 0x40008d34
40008d31:	465700        	j	0x40008e92
40008d34:	720201        	l8ui	a7, a2, 1
40008d37:	1c18      	movi.n	a8, 17
40008d39:	72c7fe        	addi	a7, a7, -2
40008d3c:	707074        	extui	a7, a7, 0, 8
40008d3f:	77b802        	bgeu	a8, a7, 0x40008d45
40008d42:	065300        	j	0x40008e92
40008d45:	81e6ff        	l32r	a8, 0x40008ce0	; ( 0x3ff9bec4 )
40008d48:	8077a0        	addx4	a7, a7, a8
40008d4b:	7807      	l32i.n	a7, a7, 0
40008d4d:	a00700        	jx	a7
40008d50 to 40008e91  --------- Unknown territory !!!
40008e92:	0c57      	movi.n	a7, 5
40008e94:	7981      	s32i.n	a7, a1, 32
40008e96:	0c1a      	movi.n	a10, 1
40008e98:	0c0b      	movi.n	a11, 0
40008e9a:	8881      	l32i.n	a8, a1, 32
40008e9c:	72a0c7        	movi	a7, 199
40008e9f:	779805        	bne	a8, a7, 0x40008ea8
40008ea2:	0c06      	movi.n	a6, 0
40008ea4:	6981      	s32i.n	a6, a1, 32
40008ea6:	0c16      	movi.n	a6, 1
40008ea8:	0c18      	movi.n	a8, 1
40008eaa:	8b9b      	addi.n	a9, a11, 8
40008eac:	0c07      	movi.n	a7, 0
40008eae:	9a95      	add.n	a9, a5, a9
40008eb0:	a07893        	movnez	a7, a8, a10
40008eb3:	724900        	s8i	a7, a9, 0
40008eb6:	7881      	l32i.n	a7, a1, 32
40008eb8:	b0b0f4        	extui	a11, a11, 0, 16
40008ebb:	724901        	s8i	a7, a9, 1
40008ebe:	920501        	l8ui	a9, a5, 1
40008ec1:	4b7b      	addi.n	a7, a11, 4
40008ec3:	724502        	s8i	a7, a5, 2
40008ec6:	0c07      	movi.n	a7, 0
40008ec8:	724503        	s8i	a7, a5, 3
40008ecb:	92c9f8        	addi	a9, a9, -8
40008ece:	0c87      	movi.n	a7, 8
40008ed0:	907893        	movnez	a7, a8, a9
40008ed3:	cb8b      	addi.n	a8, a11, 12
40008ed5:	80b820        	or	a11, a8, a8
40008ed8:	50a520        	or	a10, a5, a5
40008edb:	89c1      	s32i.n	a8, a1, 48
40008edd:	654a00        	call8	0x40009384
40008ee0:	88c1      	l32i.n	a8, a1, 48
40008ee2:	661a02        	bnei	a10, 1, 0x40008ee8
40008ee5:	468eff        	j	0x40008d22
40008ee8:	0b77      	addi.n	a7, a7, -1
40008eea:	5677fe        	bnez	a7, 0x40008ed5
40008eed:	9c86      	beqz.n	a6, 0x40008f09
40008eef:	a56a00        	call8	0x40009598
40008ef2:	7d0a      	mov.n	a7, a10
40008ef4:	a2a0c0        	movi	a10, 192
40008ef7:	653300        	call8	0x4000922c
40008efa:	a2a0c0        	movi	a10, 192
40008efd:	e53200        	call8	0x4000922c
40008f00:	a20718        	l8ui	a10, a7, 24
40008f03:	653700        	call8	0x40009278
40008f06:	6534ff        	call8	0x4000824c
40008f09:	7871      	l32i.n	a7, a1, 28
40008f0b:	ac17      	beqz.n	a7, 0x40008f30
40008f0d:	a56800        	call8	0x40009598
40008f10:	7d0a      	mov.n	a7, a10
40008f12:	a2a0c0        	movi	a10, 192
40008f15:	653100        	call8	0x4000922c
40008f18:	a2a0c0        	movi	a10, 192
40008f1b:	253100        	call8	0x4000922c
40008f1e:	a20718        	l8ui	a10, a7, 24
40008f21:	653500        	call8	0x40009278
40008f24:	a20718        	l8ui	a10, a7, 24
40008f27:	b871      	l32i.n	a11, a1, 28
40008f29:	0c07      	movi.n	a7, 0
40008f2b:	251a00        	call8	0x400090cc
40008f2e:	7971      	s32i.n	a7, a1, 28
40008f30:	722106        	l32i	a7, a1, 24
40008f33:	262702        	beqi	a7, 2, 0x40008f39
40008f36:	0677ff        	j	0x40008d16
40008f39:	a2a020        	movi	a10, 32
40008f3c:	e58bfd        	call8	0x400067fc
40008f3f:	22a000        	movi	a2, 0
40008f42:	1df0      	retw.n
40008f44:	00003ff4	; l32r
40008f48 to 40008fb7  --------- Unknown territory !!!
40008fb8:	0001c200	; l32r
40008fbc:	3ffe009c	; l32r
40008fc0:	3ff40010	; l32r
40008fc4:	3ff50010	; l32r
40008fc8:	40008f4c	; l32r
40008fcc:	3ffe01b8	; l32r
40008fd0:	364100        	entry	a1, 32
40008fd3:	81d3fd        	l32r	a8, 0x40008720	; ( 0x3ffe019c )
40008fd6:	91f8ff        	l32r	a9, 0x40008fb8	; ( 0x0001c200 )
40008fd9:	b1f8ff        	l32r	a11, 0x40008fbc	; ( 0x3ffe009c )
40008fdc:	926800        	s32i	a9, a8, 0
40008fdf:	92a003        	movi	a9, 3
40008fe2:	0c1a      	movi.n	a10, 1
40008fe4:	9918      	s32i.n	a9, a8, 4
40008fe6:	0c09      	movi.n	a9, 0
40008fe8:	9958      	s32i.n	a9, a8, 20
40008fea:	9928      	s32i.n	a9, a8, 8
40008fec:	9938      	s32i.n	a9, a8, 12
40008fee:	a948      	s32i.n	a10, a8, 16
40008ff0:	b978      	s32i.n	a11, a8, 28
40008ff2:	99b8      	s32i.n	a9, a8, 44
40008ff4:	b988      	s32i.n	a11, a8, 32
40008ff6:	b998      	s32i.n	a11, a8, 36
40008ff8:	a24828        	s8i	a10, a8, 40
40008ffb:	99c8      	s32i.n	a9, a8, 48
40008ffd:	99d8      	s32i.n	a9, a8, 52
40008fff:	924818        	s8i	a9, a8, 24
40009002:	924819        	s8i	a9, a8, 25
40009005:	81eeff        	l32r	a8, 0x40008fc0	; ( 0x3ff40010 )
40009008:	c02000        	memw
4000900b:	a908      	s32i.n	a10, a8, 0
4000900d:	81edff        	l32r	a8, 0x40008fc4	; ( 0x3ff50010 )
40009010:	c02000        	memw
40009013:	a26800        	s32i	a10, a8, 0
40009016:	2c0a      	movi.n	a10, 32
40009018:	257efd        	call8	0x400067fc
4000901b:	b1ebff        	l32r	a11, 0x40008fc8	; ( 0x40008f4c )
4000901e:	c1ebff        	l32r	a12, 0x40008fcc	; ( 0x3ffe01b8 )
40009021:	0c5a      	movi.n	a10, 5
40009023:	a57cfd        	call8	0x400067ec
40009026:	1df0      	retw.n
40009028 to 40009033  --------- Unknown territory !!!
40009034:	364100        	entry	a1, 32
40009037:	81bafd        	l32r	a8, 0x40008720	; ( 0x3ffe019c )
4000903a:	202074        	extui	a2, a2, 0, 8
4000903d:	48c8      	l32i.n	a4, a8, 48
4000903f:	303074        	extui	a3, a3, 0, 8
40009042:	cc34      	bnez.n	a4, 0x40009049
40009044:	0c14      	movi.n	a4, 1
40009046:	42680c        	s32i	a4, a8, 48
40009049:	41beff        	l32r	a4, 0x40008f44	; ( 0x00003ff4 )
4000904c:	4a22      	add.n	a2, a2, a4
4000904e:	002211        	slli	a2, a2, 16
40009051:	c02000        	memw
40009054:	4862      	l32i.n	a4, a2, 24
40009056:	07e416        	bbsi	a4, 0, 0x40009070
40009059:	c02000        	memw
4000905c:	8862      	l32i.n	a8, a2, 24
4000905e:	7ce4      	movi.n	a4, -2
40009060:	404810        	and	a4, a8, a4
40009063:	c02000        	memw
40009066:	4962      	s32i.n	a4, a2, 24
40009068:	42a401        	movi	a4, 0x401
4000906b:	c02000        	memw
4000906e:	4962      	s32i.n	a4, a2, 24
40009070:	42a07f        	movi	a4, 127
40009073:	860200        	j	0x40009081
40009076 to 40009077  --------- Unknown territory !!!
40009078:	564304        	bnez	a3, 0x400090c0
4000907b:	a2a3e8        	movi	a10, 0x3e8
4000907e:	654bff        	call8	0x40008534
40009081:	c02000        	memw
40009084:	82220c        	l32i	a8, a2, 48
40009087:	87b4ed        	bgeu	a4, a8, 0x40009078
4000908a:	c02000        	memw
4000908d:	32220a        	l32i	a3, a2, 40
40009090:	c02000        	memw
40009093:	42220b        	l32i	a4, a2, 44
40009096:	c02000        	memw
40009099:	9862      	l32i.n	a9, a2, 24
4000909b:	7ce8      	movi.n	a8, -2
4000909d:	808910        	and	a8, a9, a8
400090a0:	c02000        	memw
400090a3:	8962      	s32i.n	a8, a2, 24
400090a5:	816afd        	l32r	a8, 0x40008650	; ( 0x000fffff )
400090a8:	802410        	and	a2, a4, a8
400090ab:	808310        	and	a8, a3, a8
400090ae:	8a22      	add.n	a2, a2, a8
400090b0:	0c03      	movi.n	a3, 0
400090b2:	d02211        	slli	a2, a2, 3
400090b5:	302253        	max	a2, a2, a3
400090b8:	32a090        	movi	a3, 144
400090bb:	3a22      	add.n	a2, a2, a3
400090bd:	1df0      	retw.n
400090bf to 400090bf  --------- Unknown territory !!!
400090c0:	0c02      	movi.n	a2, 0
400090c2:	1df0      	retw.n
400090c4:	00060000	; l32r
400090c8:	fff9ffff	; l32r
400090cc:	364100        	entry	a1, 32
400090cf:	819dff        	l32r	a8, 0x40008f44	; ( 0x00003ff4 )
400090d2:	a15ffd        	l32r	a10, 0x40008650	; ( 0x000fffff )
400090d5:	309034        	extui	a9, a3, 0, 4
400090d8:	202074        	extui	a2, a2, 0, 8
400090db:	303441        	srli	a3, a3, 4
400090de:	c09901        	slli	a9, a9, 20
400090e1:	8a82      	add.n	a8, a2, a8
400090e3:	a03310        	and	a3, a3, a10
400090e6:	008811        	slli	a8, a8, 16
400090e9:	303920        	or	a3, a9, a3
400090ec:	c02000        	memw
400090ef:	3958      	s32i.n	a3, a8, 20
400090f1:	c02000        	memw
400090f4:	9888      	l32i.n	a9, a8, 32
400090f6:	31f3ff        	l32r	a3, 0x400090c4	; ( 0x00060000 )
400090f9:	303920        	or	a3, a9, a3
400090fc:	c02000        	memw
400090ff:	3988      	s32i.n	a3, a8, 32
40009101:	c02000        	memw
40009104:	9888      	l32i.n	a9, a8, 32
40009106:	31f0ff        	l32r	a3, 0x400090c8	; ( 0xfff9ffff )
40009109:	303910        	and	a3, a9, a3
4000910c:	c02000        	memw
4000910f:	3988      	s32i.n	a3, a8, 32
40009111:	1df0      	retw.n
40009113 to 40009113  --------- Unknown territory !!!
40009114:	3ff49088	; l32r
40009118:	04060000	; l32r
4000911c:	3ff0018c	; l32r
40009120:	364100        	entry	a1, 32
40009123:	202074        	extui	a2, a2, 0, 8
40009126:	167201        	beqz	a2, 0x40009141
40009129:	0c9a      	movi.n	a10, 9
4000912b:	a53501        	call8	0x4000a484
4000912e:	0caa      	movi.n	a10, 10
40009130:	253501        	call8	0x4000a484
40009133:	1c1b      	movi.n	a11, 17
40009135:	0c0c      	movi.n	a12, 0
40009137:	0c9a      	movi.n	a10, 9
40009139:	25da00        	call8	0x40009edc
4000913c:	060c00        	j	0x40009170
4000913f to 40009140  --------- Unknown territory !!!
40009141:	a2a003        	movi	a10, 3
40009144:	e53301        	call8	0x4000a484
40009147:	a2a001        	movi	a10, 1
4000914a:	a53301        	call8	0x4000a484
4000914d:	41f1ff        	l32r	a4, 0x40009114	; ( 0x3ff49088 )
40009150:	82aeff        	movi	a8, 0xfffffeff
40009153:	c02000        	memw
40009156:	9804      	l32i.n	a9, a4, 0
40009158:	808910        	and	a8, a9, a8
4000915b:	c02000        	memw
4000915e:	8904      	s32i.n	a8, a4, 0
40009160:	c02000        	memw
40009163:	9804      	l32i.n	a9, a4, 0
40009165:	8153f9        	l32r	a8, 0x400076b4	; ( 0xffff8fff )
40009168:	808910        	and	a8, a9, a8
4000916b:	c02000        	memw
4000916e:	8904      	s32i.n	a8, a4, 0
40009170:	416cfd        	l32r	a4, 0x40008720	; ( 0x3ffe019c )
40009173:	c03311        	slli	a3, a3, 4
40009176:	b804      	l32i.n	a11, a4, 0
40009178:	ad02      	mov.n	a10, a2
4000917a:	b0b3c2        	quou	a11, a3, a11
4000917d:	e5f4ff        	call8	0x400090cc
40009180:	9824      	l32i.n	a9, a4, 8
40009182:	3834      	l32i.n	a3, a4, 12
40009184:	8170ff        	l32r	a8, 0x40008f44	; ( 0x00003ff4 )
40009187:	303920        	or	a3, a9, a3
4000918a:	91c8eb        	l32r	a9, 0x400040ac	; ( 0x08000000 )
4000918d:	8a82      	add.n	a8, a2, a8
4000918f:	903320        	or	a3, a3, a9
40009192:	9844      	l32i.n	a9, a4, 16
40009194:	008811        	slli	a8, a8, 16
40009197:	c09911        	slli	a9, a9, 4
4000919a:	903320        	or	a3, a3, a9
4000919d:	9814      	l32i.n	a9, a4, 4
4000919f:	e09911        	slli	a9, a9, 2
400091a2:	903320        	or	a3, a3, a9
400091a5:	c02000        	memw
400091a8:	3988      	s32i.n	a3, a8, 32
400091aa:	c02000        	memw
400091ad:	9888      	l32i.n	a9, a8, 32
400091af:	31daff        	l32r	a3, 0x40009118	; ( 0x04060000 )
400091b2:	303920        	or	a3, a9, a3
400091b5:	c02000        	memw
400091b8:	3988      	s32i.n	a3, a8, 32
400091ba:	c02000        	memw
400091bd:	9888      	l32i.n	a9, a8, 32
400091bf:	31c2ff        	l32r	a3, 0x400090c8	; ( 0xfff9ffff )
400091c2:	303910        	and	a3, a9, a3
400091c5:	c02000        	memw
400091c8:	3988      	s32i.n	a3, a8, 32
400091ca:	320428        	l8ui	a3, a4, 40
400091cd:	303064        	extui	a3, a3, 0, 7
400091d0:	c02000        	memw
400091d3:	3998      	s32i.n	a3, a8, 36
400091d5:	31ebfc        	l32r	a3, 0x40008584	; ( 0x0000ffff )
400091d8:	c02000        	memw
400091db:	3948      	s32i.n	a3, a8, 16
400091dd:	c02000        	memw
400091e0:	4838      	l32i.n	a4, a8, 12
400091e2:	0c13      	movi.n	a3, 1
400091e4:	303420        	or	a3, a4, a3
400091e7:	c02000        	memw
400091ea:	3938      	s32i.n	a3, a8, 12
400091ec:	0c54      	movi.n	a4, 5
400091ee:	8c42      	beqz.n	a2, 0x400091f6
400091f0:	2151fd        	l32r	a2, 0x40008734	; ( 0x3ff00190 )
400091f3:	860000        	j	0x400091f9
400091f6:	21c9ff        	l32r	a2, 0x4000911c	; ( 0x3ff0018c )
400091f9:	c02000        	memw
400091fc:	4902      	s32i.n	a4, a2, 0
400091fe:	1df0      	retw.n
40009200 to 4000922b  --------- Unknown territory !!!
4000922c:	364100        	entry	a1, 32
4000922f:	209074        	extui	a9, a2, 0, 8
40009232:	213bfd        	l32r	a2, 0x40008720	; ( 0x3ffe019c )
40009235:	a1b7e8        	l32r	a10, 0x40003514	; ( 0x00800000 )
40009238:	820218        	l8ui	a8, a2, 24
4000923b:	2142ff        	l32r	a2, 0x40008f44	; ( 0x00003ff4 )
4000923e:	2a88      	add.n	a8, a8, a2
40009240:	008811        	slli	a8, a8, 16
40009243:	b2c81c        	addi	a11, a8, 28
40009246:	c02000        	memw
40009249:	280b      	l32i.n	a2, a11, 0
4000924b:	a02210        	and	a2, a2, a10
4000924e:	5642ff        	bnez	a2, 0x40009246
40009251:	c02000        	memw
40009254:	9908      	s32i.n	a9, a8, 0
40009256:	1df0      	retw.n
40009258:	364100        	entry	a1, 32
4000925b:	813aff        	l32r	a8, 0x40008f44	; ( 0x00003ff4 )
4000925e:	202074        	extui	a2, a2, 0, 8
40009261:	8aa2      	add.n	a10, a2, a8
40009263:	00aa11        	slli	a10, a10, 16
40009266:	81f4dc        	l32r	a8, 0x40000638	; ( 0x00ff0000 )
40009269:	a2ca1c        	addi	a10, a10, 28
4000926c:	c02000        	memw
4000926f:	980a      	l32i.n	a9, a10, 0
40009271:	8789f7        	bany	a9, a8, 0x4000926c
40009274:	1df0      	retw.n
40009276 to 40009277  --------- Unknown territory !!!
40009278:	364100        	entry	a1, 32
4000927b:	3132ff        	l32r	a3, 0x40008f44	; ( 0x00003ff4 )
4000927e:	20a074        	extui	a10, a2, 0, 8
40009281:	3a3a      	add.n	a3, a10, a3
40009283:	003311        	slli	a3, a3, 16
40009286:	c02000        	memw
40009289:	8843      	l32i.n	a8, a3, 16
4000928b:	4129fd        	l32r	a4, 0x40008730	; ( 0x00004000 )
4000928e:	408820        	or	a8, a8, a4
40009291:	c02000        	memw
40009294:	8943      	s32i.n	a8, a3, 16
40009296:	25fcff        	call8	0x40009258
40009299:	c02000        	memw
4000929c:	8813      	l32i.n	a8, a3, 4
4000929e:	4788f7        	bany	a8, a4, 0x40009299
400092a1:	1df0      	retw.n
400092a3 to 4000933f  --------- Unknown territory !!!
40009340:	364100        	entry	a1, 32
40009343:	a2a0c0        	movi	a10, 192
40009346:	65eeff        	call8	0x4000922c
40009349:	3a32      	add.n	a3, a2, a3
4000934b:	42a0c0        	movi	a4, 192
4000934e:	860900        	j	0x40009378
40009351:	a20200        	l8ui	a10, a2, 0
40009354:	471a08        	beq	a10, a4, 0x40009360
40009357:	82a0db        	movi	a8, 219
4000935a:	871a0f        	beq	a10, a8, 0x4000936d
4000935d:	860400        	j	0x40009373
40009360:	a2a0db        	movi	a10, 219
40009363:	a5ecff        	call8	0x4000922c
40009366:	a2a0dc        	movi	a10, 220
40009369:	860100        	j	0x40009373
4000936c to 4000936c  --------- Unknown territory !!!
4000936d:	e5ebff        	call8	0x4000922c
40009370:	a2a0dd        	movi	a10, 221
40009373:	a5ebff        	call8	0x4000922c
40009376:	1b22      	addi.n	a2, a2, 1
40009378:	3792d5        	bne	a2, a3, 0x40009351
4000937b:	a2a0c0        	movi	a10, 192
4000937e:	e5eaff        	call8	0x4000922c
40009381:	1df0      	retw.n
40009383 to 40009383  --------- Unknown territory !!!
40009384:	364100        	entry	a1, 32
40009387:	20a220        	or	a10, a2, a2
4000938a:	30b0f4        	extui	a11, a3, 0, 16
4000938d:	25fbff        	call8	0x40009340
40009390:	0c02      	movi.n	a2, 0
40009392:	1df0      	retw.n
40009394:	364100        	entry	a1, 32
40009397:	8d02      	mov.n	a8, a2
40009399:	9818      	l32i.n	a9, a8, 4
4000939b:	2822      	l32i.n	a2, a2, 8
4000939d:	271919        	beq	a9, a2, 0x400093ba
400093a0:	220200        	l8ui	a2, a2, 0
400093a3:	224300        	s8i	a2, a3, 0
400093a6:	a828      	l32i.n	a10, a8, 8
400093a8:	9808      	l32i.n	a9, a8, 0
400093aa:	1baa      	addi.n	a10, a10, 1
400093ac:	a928      	s32i.n	a10, a8, 8
400093ae:	b2d901        	addmi	a11, a9, 0x100
400093b1:	0c02      	movi.n	a2, 0
400093b3:	b79a05        	bne	a10, a11, 0x400093bc
400093b6:	9928      	s32i.n	a9, a8, 8
400093b8:	1df0      	retw.n
400093ba:	0c12      	movi.n	a2, 1
400093bc:	1df0      	retw.n
400093be to 400093bf  --------- Unknown territory !!!
400093c0:	366100        	entry	a1, 48
400093c3:	0c19      	movi.n	a9, 1
400093c5:	202074        	extui	a2, a2, 0, 8
400093c8:	0c08      	movi.n	a8, 0
400093ca:	208983        	moveqz	a8, a9, a2
400093cd:	91ddfe        	l32r	a9, 0x40008f44	; ( 0x00003ff4 )
400093d0:	9a88      	add.n	a8, a8, a9
400093d2:	916cfc        	l32r	a9, 0x40008584	; ( 0x0000ffff )
400093d5:	008811        	slli	a8, a8, 16
400093d8:	c02000        	memw
400093db:	9948      	s32i.n	a9, a8, 16
400093dd:	c02000        	memw
400093e0:	a838      	l32i.n	a10, a8, 12
400093e2:	7ce9      	movi.n	a9, -2
400093e4:	909a10        	and	a9, a10, a9
400093e7:	c02000        	memw
400093ea:	9938      	s32i.n	a9, a8, 12
400093ec:	a1f8fe        	l32r	a10, 0x40008fcc	; ( 0x3ffe01b8 )
400093ef:	bd01      	mov.n	a11, a1
400093f1:	25faff        	call8	0x40009394
400093f4:	164aff        	beqz	a10, 0x400093ec
400093f7:	91cafc        	l32r	a9, 0x40008720	; ( 0x3ffe019c )
400093fa:	0c08      	movi.n	a8, 0
400093fc:	89b9      	s32i.n	a8, a9, 44
400093fe:	81d1fe        	l32r	a8, 0x40008f44	; ( 0x00003ff4 )
40009401:	a160fc        	l32r	a10, 0x40008584	; ( 0x0000ffff )
40009404:	8a82      	add.n	a8, a2, a8
40009406:	008811        	slli	a8, a8, 16
40009409:	c02000        	memw
4000940c:	a948      	s32i.n	a10, a8, 16
4000940e:	c02000        	memw
40009411:	b838      	l32i.n	a11, a8, 12
40009413:	0c1a      	movi.n	a10, 1
40009415:	a0ab20        	or	a10, a11, a10
40009418:	c02000        	memw
4000941b:	a938      	s32i.n	a10, a8, 12
4000941d:	224918        	s8i	a2, a9, 24
40009420:	1df0      	retw.n
40009422 to 40009423  --------- Unknown territory !!!
40009424:	368100        	entry	a1, 64
40009427:	0c05      	movi.n	a5, 0
40009429:	524100        	s8i	a5, a1, 0
4000942c:	404074        	extui	a4, a4, 0, 8
4000942f:	51e7fe        	l32r	a5, 0x40008fcc	; ( 0x3ffe01b8 )
40009432:	72a0c0        	movi	a7, 192
40009435:	8cc4      	beqz.n	a4, 0x40009445
40009437:	71bafc        	l32r	a7, 0x40008720	; ( 0x3ffe019c )
4000943a:	98c7      	l32i.n	a9, a7, 48
4000943c:	68d7      	l32i.n	a6, a7, 52
4000943e:	662947        	bnei	a9, 2, 0x40009489
40009441:	460800        	j	0x40009466
40009444 to 40009444  --------- Unknown territory !!!
40009445:	ad05      	mov.n	a10, a5
40009447:	bd01      	mov.n	a11, a1
40009449:	a5f4ff        	call8	0x40009394
4000944c:	261af5        	beqi	a10, 1, 0x40009445
4000944f:	820100        	l8ui	a8, a1, 0
40009452:	7798ef        	bne	a8, a7, 0x40009445
40009455:	0c06      	movi.n	a6, 0
40009457:	860b00        	j	0x40009489
4000945a to 4000945b  --------- Unknown territory !!!
4000945c:	c79909        	bne	a9, a12, 0x40009469
4000945f:	0c3a      	movi.n	a10, 3
40009461:	a9c7      	s32i.n	a10, a7, 48
40009463:	460500        	j	0x4000947c
40009466:	c2a0c0        	movi	a12, 192
40009469:	ad05      	mov.n	a10, a5
4000946b:	10b120        	or	a11, a1, a1
4000946e:	c26105        	s32i	a12, a1, 20
40009471:	25f2ff        	call8	0x40009394
40009474:	920100        	l8ui	a9, a1, 0
40009477:	c851      	l32i.n	a12, a1, 20
40009479:	16fafd        	beqz	a10, 0x4000945c
4000947c:	72a0c0        	movi	a7, 192
4000947f:	771906        	beq	a9, a7, 0x40009489
40009482:	0c02      	movi.n	a2, 0
40009484:	1df0      	retw.n
40009486 to 40009488  --------- Unknown territory !!!
40009489:	72a0c0        	movi	a7, 192
4000948c:	ad05      	mov.n	a10, a5
4000948e:	10b120        	or	a11, a1, a1
40009491:	25f0ff        	call8	0x40009394
40009494:	56ca0a        	bnez	a10, 0x40009544
40009497:	9c14      	beqz.n	a4, 0x400094ac
40009499:	91a1fc        	l32r	a9, 0x40008720	; ( 0x3ffe019c )
4000949c:	98c9      	l32i.n	a9, a9, 48
4000949e:	66490a        	bnei	a9, 4, 0x400094ac
400094a1:	820100        	l8ui	a8, a1, 0
400094a4:	92afdb        	movi	a9, -37
400094a7:	8941      	s32i.n	a8, a1, 16
400094a9:	924100        	s8i	a9, a1, 0
400094ac:	920100        	l8ui	a9, a1, 0
400094af:	771908        	beq	a9, a7, 0x400094bb
400094b2:	a2a0db        	movi	a10, 219
400094b5:	a71917        	beq	a9, a10, 0x400094d0
400094b8:	061b00        	j	0x40009528
400094bb:	16d6fc        	beqz	a6, 0x4000948c
400094be:	2d06      	mov.n	a2, a6
400094c0:	166408        	beqz	a4, 0x4000954a
400094c3:	3197fc        	l32r	a3, 0x40008720	; ( 0x3ffe019c )
400094c6:	0c04      	movi.n	a4, 0
400094c8:	49d3      	s32i.n	a4, a3, 52
400094ca:	0c24      	movi.n	a4, 2
400094cc:	49c3      	s32i.n	a4, a3, 48
400094ce:	1df0      	retw.n
400094d0:	ccd4      	bnez.n	a4, 0x400094e1
400094d2:	ad05      	mov.n	a10, a5
400094d4:	bd01      	mov.n	a11, a1
400094d6:	e5ebff        	call8	0x40009394
400094d9:	261af5        	beqi	a10, 1, 0x400094d2
400094dc:	c60700        	j	0x400094ff
400094df to 400094e0  --------- Unknown territory !!!
400094e1:	918ffc        	l32r	a9, 0x40008720	; ( 0x3ffe019c )
400094e4:	a8c9      	l32i.n	a10, a9, 48
400094e6:	663a10        	bnei	a10, 3, 0x400094fa
400094e9:	0c4a      	movi.n	a10, 4
400094eb:	a9c9      	s32i.n	a10, a9, 48
400094ed:	bd01      	mov.n	a11, a1
400094ef:	ad05      	mov.n	a10, a5
400094f1:	25eaff        	call8	0x40009394
400094f4:	661a07        	bnei	a10, 1, 0x400094ff
400094f7:	c6e1ff        	j	0x40009482
400094fa:	8841      	l32i.n	a8, a1, 16
400094fc:	824100        	s8i	a8, a1, 0
400094ff:	920100        	l8ui	a9, a1, 0
40009502:	a2a0dc        	movi	a10, 220
40009505:	a71908        	beq	a9, a10, 0x40009511
40009508:	a2a0dd        	movi	a10, 221
4000950b:	a7190a        	beq	a9, a10, 0x40009519
4000950e:	460300        	j	0x4000951f
40009511:	92afc0        	movi	a9, -64
40009514:	060100        	j	0x4000951c
40009517 to 40009518  --------- Unknown territory !!!
40009519:	92afdb        	movi	a9, -37
4000951c:	924100        	s8i	a9, a1, 0
4000951f:	8c54      	beqz.n	a4, 0x40009528
40009521:	917ffc        	l32r	a9, 0x40008720	; ( 0x3ffe019c )
40009524:	0c3a      	movi.n	a10, 3
40009526:	a9c9      	s32i.n	a10, a9, 48
40009528:	372602        	blt	a6, a3, 0x4000952e
4000952b:	46d7ff        	j	0x4000948c
4000952e:	a20100        	l8ui	a10, a1, 0
40009531:	6a92      	add.n	a9, a2, a6
40009533:	a24900        	s8i	a10, a9, 0
40009536:	917afc        	l32r	a9, 0x40008720	; ( 0x3ffe019c )
40009539:	1b66      	addi.n	a6, a6, 1
4000953b:	a8d9      	l32i.n	a10, a9, 52
4000953d:	1baa      	addi.n	a10, a10, 1
4000953f:	a9d9      	s32i.n	a10, a9, 52
40009541:	c6d1ff        	j	0x4000948c
40009544:	1644f4        	beqz	a4, 0x4000948c
40009547:	c6cdff        	j	0x40009482
4000954a:	1df0      	retw.n
4000954c:	364100        	entry	a1, 32
4000954f:	ad02      	mov.n	a10, a2
40009551:	30b0f4        	extui	a11, a3, 0, 16
40009554:	40c074        	extui	a12, a4, 0, 8
40009557:	e5ecff        	call8	0x40009424
4000955a:	0c18      	movi.n	a8, 1
4000955c:	0c02      	movi.n	a2, 0
4000955e:	a02883        	moveqz	a2, a8, a10
40009561:	1df0      	retw.n
40009563 to 40009597  --------- Unknown territory !!!
40009598:	364100        	entry	a1, 32
4000959b:	2161fc        	l32r	a2, 0x40008720	; ( 0x3ffe019c )
4000959e:	1df0      	retw.n
400095a0:	3ff12000	; l32r
400095a4:	364100        	entry	a1, 32
400095a7:	91feff        	l32r	a9, 0x400095a0	; ( 0x3ff12000 )
400095aa:	8197f6        	l32r	a8, 0x40007008	; ( 0x3ff10000 )
400095ad:	80a223        	sext	a10, a2, 15
400095b0:	a08993        	movnez	a8, a9, a10
400095b3:	c178e8        	l32r	a12, 0x40003794	; ( 0x00002000 )
400095b6:	80a820        	or	a10, a8, a8
400095b9:	b2a000        	movi	a11, 0
400095bc:	e5e802        	call8	0x4000c44c
400095bf:	22a000        	movi	a2, 0
400095c2:	1df0      	retw.n
400095c4:	3f3fffff	; l32r
400095c8:	003fffff	; l32r
400095cc:	400cffff	; l32r
400095d0:	403fffff	; l32r
400095d4:	40400000	; l32r
400095d8:	407fffff	; l32r
400095dc:	40800000	; l32r
400095e0:	364100        	entry	a1, 32
400095e3:	4c08      	movi.n	a8, 64
400095e5:	91e7fb        	l32r	a9, 0x40008584	; ( 0x0000ffff )
400095e8:	6088d2        	quos	a8, a8, a6
400095eb:	0b88      	addi.n	a8, a8, -1
400095ed:	000840        	ssr	a8
400095f0:	9080b1        	sra	a8, a9
400095f3:	509420        	or	a9, a4, a5
400095f6:	908810        	and	a8, a8, a9
400095f9:	56f81d        	bnez	a8, 0x400097dc
400095fc:	26d60c        	beqi	a6, 64, 0x4000960c
400095ff:	26c611        	beqi	a6, 32, 0x40009614
40009602:	0c29      	movi.n	a9, 2
40009604:	0cea      	movi.n	a10, 14
40009606:	26b60e        	beqi	a6, 16, 0x40009618
40009609:	067500        	j	0x400097e1
4000960c:	9d08      	mov.n	a9, a8
4000960e:	1c0a      	movi.n	a10, 16
40009610:	060100        	j	0x40009618
40009613 to 40009613  --------- Unknown territory !!!
40009614:	0c19      	movi.n	a9, 1
40009616:	0cfa      	movi.n	a10, 15
40009618:	b1ebff        	l32r	a11, 0x400095c4	; ( 0x3f3fffff )
4000961b:	b62302        	bltui	a3, 2, 0x40009621
4000961e:	862900        	j	0x400096c8
40009621:	473b02        	bltu	a11, a4, 0x40009627
40009624:	866f00        	j	0x400097e6
40009627:	31a1f4        	l32r	a3, 0x400068ac	; ( 0x3f400000 )
4000962a:	006611        	slli	a6, a6, 16
4000962d:	3a36      	add.n	a3, a6, a3
4000962f:	37b415        	bgeu	a4, a3, 0x40009648
40009632:	31e5ff        	l32r	a3, 0x400095c8	; ( 0x003fffff )
40009635:	000940        	ssr	a9
40009638:	3030b1        	sra	a3, a3
4000963b:	404310        	and	a4, a3, a4
4000963e:	000a40        	ssr	a10
40009641:	404091        	srl	a4, a4
40009644:	c64000        	j	0x4000974b
40009647 to 40009647  --------- Unknown territory !!!
40009648:	31e1ff        	l32r	a3, 0x400095cc	; ( 0x400cffff )
4000964b:	473302        	bltu	a3, a4, 0x40009651
4000964e:	066500        	j	0x400097e6
40009651:	3145e9        	l32r	a3, 0x40003b68	; ( 0x40000000 )
40009654:	3a36      	add.n	a3, a6, a3
40009656:	37b417        	bgeu	a4, a3, 0x40009671
40009659:	31dbff        	l32r	a3, 0x400095c8	; ( 0x003fffff )
4000965c:	000940        	ssr	a9
4000965f:	3030b1        	sra	a3, a3
40009662:	404310        	and	a4, a3, a4
40009665:	000a40        	ssr	a10
40009668:	404091        	srl	a4, a4
4000966b:	42c440        	addi	a4, a4, 64
4000966e:	463600        	j	0x4000974b
40009671:	31d7ff        	l32r	a3, 0x400095d0	; ( 0x403fffff )
40009674:	473302        	bltu	a3, a4, 0x4000967a
40009677:	c65a00        	j	0x400097e6
4000967a:	31d6ff        	l32r	a3, 0x400095d4	; ( 0x40400000 )
4000967d:	3a36      	add.n	a3, a6, a3
4000967f:	37b419        	bgeu	a4, a3, 0x4000969c
40009682:	31d1ff        	l32r	a3, 0x400095c8	; ( 0x003fffff )
40009685:	000940        	ssr	a9
40009688:	3030b1        	sra	a3, a3
4000968b:	404310        	and	a4, a3, a4
4000968e:	000a40        	ssr	a10
40009691:	404091        	srl	a4, a4
40009694:	32a080        	movi	a3, 128
40009697:	862b00        	j	0x40009749
4000969a to 4000969b  --------- Unknown territory !!!
4000969c:	31cfff        	l32r	a3, 0x400095d8	; ( 0x407fffff )
4000969f:	473302        	bltu	a3, a4, 0x400096a5
400096a2:	065000        	j	0x400097e6
400096a5:	31cdff        	l32r	a3, 0x400095dc	; ( 0x40800000 )
400096a8:	3a66      	add.n	a6, a6, a3
400096aa:	673402        	bltu	a4, a6, 0x400096b0
400096ad:	464d00        	j	0x400097e6
400096b0:	31c6ff        	l32r	a3, 0x400095c8	; ( 0x003fffff )
400096b3:	000940        	ssr	a9
400096b6:	3030b1        	sra	a3, a3
400096b9:	404310        	and	a4, a3, a4
400096bc:	000a40        	ssr	a10
400096bf:	404091        	srl	a4, a4
400096c2:	32a0c0        	movi	a3, 192
400096c5:	062000        	j	0x40009749
400096c8:	473b02        	bltu	a11, a4, 0x400096ce
400096cb:	c64500        	j	0x400097e6
400096ce:	b177f4        	l32r	a11, 0x400068ac	; ( 0x3f400000 )
400096d1:	20c611        	slli	a12, a6, 14
400096d4:	babc      	add.n	a11, a12, a11
400096d6:	b7b41a        	bgeu	a4, a11, 0x400096f4
400096d9:	61ddfb        	l32r	a6, 0x40008650	; ( 0x000fffff )
400096dc:	c03311        	slli	a3, a3, 4
400096df:	000940        	ssr	a9
400096e2:	6060b1        	sra	a6, a6
400096e5:	404610        	and	a4, a6, a4
400096e8:	32d304        	addmi	a3, a3, 0x400
400096eb:	000a40        	ssr	a10
400096ee:	404091        	srl	a4, a4
400096f1:	061500        	j	0x40009749
400096f4:	b1b7ff        	l32r	a11, 0x400095d0	; ( 0x403fffff )
400096f7:	473b02        	bltu	a11, a4, 0x400096fd
400096fa:	063a00        	j	0x400097e6
400096fd:	b1b5ff        	l32r	a11, 0x400095d4	; ( 0x40400000 )
40009700:	006611        	slli	a6, a6, 16
40009703:	bab6      	add.n	a11, a6, a11
40009705:	b7b417        	bgeu	a4, a11, 0x40009720
40009708:	61b0ff        	l32r	a6, 0x400095c8	; ( 0x003fffff )
4000970b:	903311        	slli	a3, a3, 7
4000970e:	000940        	ssr	a9
40009711:	6060b1        	sra	a6, a6
40009714:	404610        	and	a4, a6, a4
40009717:	000a40        	ssr	a10
4000971a:	404091        	srl	a4, a4
4000971d:	060a00        	j	0x40009749
40009720:	b1aeff        	l32r	a11, 0x400095d8	; ( 0x407fffff )
40009723:	473b02        	bltu	a11, a4, 0x40009729
40009726:	062f00        	j	0x400097e6
40009729:	b1acff        	l32r	a11, 0x400095dc	; ( 0x40800000 )
4000972c:	ba66      	add.n	a6, a6, a11
4000972e:	673402        	bltu	a4, a6, 0x40009734
40009731:	462c00        	j	0x400097e6
40009734:	61a5ff        	l32r	a6, 0x400095c8	; ( 0x003fffff )
40009737:	803311        	slli	a3, a3, 8
4000973a:	000940        	ssr	a9
4000973d:	6060b1        	sra	a6, a6
40009740:	404610        	and	a4, a6, a4
40009743:	000a40        	ssr	a10
40009746:	404091        	srl	a4, a4
40009749:	3a44      	add.n	a4, a4, a3
4000974b:	312df6        	l32r	a3, 0x40007000	; ( 0x3ff00044 )
4000974e:	612df6        	l32r	a6, 0x40007004	; ( 0x3ff0005c )
40009751:	c02000        	memw
40009754:	c803      	l32i.n	a12, a3, 0
40009756:	c02000        	memw
40009759:	b806      	l32i.n	a11, a6, 0
4000975b:	c02000        	memw
4000975e:	e806      	l32i.n	a14, a6, 0
40009760:	3cfd      	movi.n	a13, 63
40009762:	d0ee20        	or	a14, a14, a13
40009765:	c02000        	memw
40009768:	e906      	s32i.n	a14, a6, 0
4000976a:	c02000        	memw
4000976d:	6803      	l32i.n	a6, a3, 0
4000976f:	000a40        	ssr	a10
40009772:	50a091        	srl	a10, a5
40009775:	d0d620        	or	a13, a6, a13
40009778:	c02000        	memw
4000977b:	d903      	s32i.n	a13, a3, 0
4000977d:	5188ff        	l32r	a5, 0x400095a0	; ( 0x3ff12000 )
40009780:	3122f6        	l32r	a3, 0x40007008	; ( 0x3ff10000 )
40009783:	0c06      	movi.n	a6, 0
40009785:	203593        	movnez	a3, a5, a2
40009788:	860300        	j	0x4000979a
4000978b to 4000978b  --------- Unknown territory !!!
4000978c:	4a56      	add.n	a5, a6, a4
4000978e:	aad6      	add.n	a13, a6, a10
40009790:	3055a0        	addx4	a5, a5, a3
40009793:	c02000        	memw
40009796:	d905      	s32i.n	a13, a5, 0
40009798:	1b66      	addi.n	a6, a6, 1
4000979a:	7796ee        	bne	a6, a7, 0x4000978c
4000979d:	4118f6        	l32r	a4, 0x40007000	; ( 0x3ff00044 )
400097a0:	3119f6        	l32r	a3, 0x40007004	; ( 0x3ff0005c )
400097a3:	c02000        	memw
400097a6:	c904      	s32i.n	a12, a4, 0
400097a8:	c02000        	memw
400097ab:	b903      	s32i.n	a11, a3, 0
400097ad:	709911        	slli	a9, a9, 9
400097b0:	52a9ff        	movi	a5, 0xfffff9ff
400097b3:	dc12      	bnez.n	a2, 0x400097c8
400097b5:	c02000        	memw
400097b8:	2804      	l32i.n	a2, a4, 0
400097ba:	505210        	and	a5, a2, a5
400097bd:	509920        	or	a9, a9, a5
400097c0:	c02000        	memw
400097c3:	9904      	s32i.n	a9, a4, 0
400097c5:	c60700        	j	0x400097e8
400097c8:	c02000        	memw
400097cb:	2803      	l32i.n	a2, a3, 0
400097cd:	505210        	and	a5, a2, a5
400097d0:	509920        	or	a9, a9, a5
400097d3:	c02000        	memw
400097d6:	9903      	s32i.n	a9, a3, 0
400097d8:	060300        	j	0x400097e8
400097db to 400097db  --------- Unknown territory !!!
400097dc:	0c18      	movi.n	a8, 1
400097de:	860100        	j	0x400097e8
400097e1:	0c38      	movi.n	a8, 3
400097e3:	460000        	j	0x400097e8
400097e6:	0c58      	movi.n	a8, 5
400097e8:	2d08      	mov.n	a2, a8
400097ea:	1df0      	retw.n
400097ec to 40009943  --------- Unknown territory !!!
40009944:	3ff00040	; l32r
40009948:	3ff00058	; l32r
4000994c:	3ff43050	; l32r
40009950:	364100        	entry	a1, 32
40009953:	7c79      	movi.n	a9, -9
40009955:	81fbff        	l32r	a8, 0x40009944	; ( 0x3ff00040 )
40009958:	8c12      	beqz.n	a2, 0x4000995d
4000995a:	81fbff        	l32r	a8, 0x40009948	; ( 0x3ff00058 )
4000995d:	c02000        	memw
40009960:	a808      	l32i.n	a10, a8, 0
40009962:	909a10        	and	a9, a10, a9
40009965:	c02000        	memw
40009968:	9908      	s32i.n	a9, a8, 0
4000996a:	81f8ff        	l32r	a8, 0x4000994c	; ( 0x3ff43050 )
4000996d:	7ce9      	movi.n	a9, -2
4000996f:	c02000        	memw
40009972:	a808      	l32i.n	a10, a8, 0
40009974:	909a10        	and	a9, a10, a9
40009977:	c02000        	memw
4000997a:	9908      	s32i.n	a9, a8, 0
4000997c:	6cf9      	movi.n	a9, -17
4000997e:	eca2      	bnez.n	a2, 0x400099ac
40009980:	81f1ff        	l32r	a8, 0x40009944	; ( 0x3ff00040 )
40009983:	c02000        	memw
40009986:	a808      	l32i.n	a10, a8, 0
40009988:	909a10        	and	a9, a10, a9
4000998b:	c02000        	memw
4000998e:	9908      	s32i.n	a9, a8, 0
40009990:	c02000        	memw
40009993:	a808      	l32i.n	a10, a8, 0
40009995:	1c09      	movi.n	a9, 16
40009997:	909a20        	or	a9, a10, a9
4000999a:	c02000        	memw
4000999d:	9908      	s32i.n	a9, a8, 0
4000999f:	2c09      	movi.n	a9, 32
400099a1:	c02000        	memw
400099a4:	a808      	l32i.n	a10, a8, 0
400099a6:	970af7        	bnone	a10, a9, 0x400099a1
400099a9:	060a00        	j	0x400099d5
400099ac:	81e7ff        	l32r	a8, 0x40009948	; ( 0x3ff00058 )
400099af:	c02000        	memw
400099b2:	a808      	l32i.n	a10, a8, 0
400099b4:	909a10        	and	a9, a10, a9
400099b7:	c02000        	memw
400099ba:	9908      	s32i.n	a9, a8, 0
400099bc:	c02000        	memw
400099bf:	a808      	l32i.n	a10, a8, 0
400099c1:	1c09      	movi.n	a9, 16
400099c3:	909a20        	or	a9, a10, a9
400099c6:	c02000        	memw
400099c9:	9908      	s32i.n	a9, a8, 0
400099cb:	2c09      	movi.n	a9, 32
400099cd:	c02000        	memw
400099d0:	a808      	l32i.n	a10, a8, 0
400099d2:	970af7        	bnone	a10, a9, 0x400099cd
400099d5:	c02000        	memw
400099d8:	a808      	l32i.n	a10, a8, 0
400099da:	6cf9      	movi.n	a9, -17
400099dc:	909a10        	and	a9, a10, a9
400099df:	c02000        	memw
400099e2:	9908      	s32i.n	a9, a8, 0
400099e4:	81daff        	l32r	a8, 0x4000994c	; ( 0x3ff43050 )
400099e7:	0c19      	movi.n	a9, 1
400099e9:	c02000        	memw
400099ec:	a808      	l32i.n	a10, a8, 0
400099ee:	909a20        	or	a9, a10, a9
400099f1:	c02000        	memw
400099f4:	9908      	s32i.n	a9, a8, 0
400099f6:	0c88      	movi.n	a8, 8
400099f8:	cc42      	bnez.n	a2, 0x40009a00
400099fa:	21d2ff        	l32r	a2, 0x40009944	; ( 0x3ff00040 )
400099fd:	860000        	j	0x40009a03
40009a00:	21d2ff        	l32r	a2, 0x40009948	; ( 0x3ff00058 )
40009a03:	c02000        	memw
40009a06:	9802      	l32i.n	a9, a2, 0
40009a08:	808920        	or	a8, a9, a8
40009a0b:	c02000        	memw
40009a0e:	8902      	s32i.n	a8, a2, 0
40009a10:	1df0      	retw.n
40009a12 to 40009a13  --------- Unknown territory !!!
40009a14:	364100        	entry	a1, 32
40009a17:	6cf9      	movi.n	a9, -17
40009a19:	ecb2      	bnez.n	a2, 0x40009a48
40009a1b:	81caff        	l32r	a8, 0x40009944	; ( 0x3ff00040 )
40009a1e:	c02000        	memw
40009a21:	a808      	l32i.n	a10, a8, 0
40009a23:	909a10        	and	a9, a10, a9
40009a26:	c02000        	memw
40009a29:	9908      	s32i.n	a9, a8, 0
40009a2b:	c02000        	memw
40009a2e:	a808      	l32i.n	a10, a8, 0
40009a30:	1c09      	movi.n	a9, 16
40009a32:	909a20        	or	a9, a10, a9
40009a35:	c02000        	memw
40009a38:	9908      	s32i.n	a9, a8, 0
40009a3a:	2c09      	movi.n	a9, 32
40009a3c:	c02000        	memw
40009a3f:	a808      	l32i.n	a10, a8, 0
40009a41:	970af7        	bnone	a10, a9, 0x40009a3c
40009a44:	460a00        	j	0x40009a71
40009a47 to 40009a47  --------- Unknown territory !!!
40009a48:	81c0ff        	l32r	a8, 0x40009948	; ( 0x3ff00058 )
40009a4b:	c02000        	memw
40009a4e:	a808      	l32i.n	a10, a8, 0
40009a50:	909a10        	and	a9, a10, a9
40009a53:	c02000        	memw
40009a56:	9908      	s32i.n	a9, a8, 0
40009a58:	c02000        	memw
40009a5b:	a808      	l32i.n	a10, a8, 0
40009a5d:	1c09      	movi.n	a9, 16
40009a5f:	909a20        	or	a9, a10, a9
40009a62:	c02000        	memw
40009a65:	9908      	s32i.n	a9, a8, 0
40009a67:	2c09      	movi.n	a9, 32
40009a69:	c02000        	memw
40009a6c:	a808      	l32i.n	a10, a8, 0
40009a6e:	970af7        	bnone	a10, a9, 0x40009a69
40009a71:	c02000        	memw
40009a74:	a808      	l32i.n	a10, a8, 0
40009a76:	6cf9      	movi.n	a9, -17
40009a78:	909a10        	and	a9, a10, a9
40009a7b:	c02000        	memw
40009a7e:	9908      	s32i.n	a9, a8, 0
40009a80:	1df0      	retw.n
40009a82 to 40009a83  --------- Unknown territory !!!
40009a84:	364100        	entry	a1, 32
40009a87:	81b1ff        	l32r	a8, 0x4000994c	; ( 0x3ff43050 )
40009a8a:	0c19      	movi.n	a9, 1
40009a8c:	c02000        	memw
40009a8f:	a808      	l32i.n	a10, a8, 0
40009a91:	909a20        	or	a9, a10, a9
40009a94:	c02000        	memw
40009a97:	9908      	s32i.n	a9, a8, 0
40009a99:	0c88      	movi.n	a8, 8
40009a9b:	91aaff        	l32r	a9, 0x40009944	; ( 0x3ff00040 )
40009a9e:	162200        	beqz	a2, 0x40009aa4
40009aa1:	91a9ff        	l32r	a9, 0x40009948	; ( 0x3ff00058 )
40009aa4:	c02000        	memw
40009aa7:	a809      	l32i.n	a10, a9, 0
40009aa9:	808a20        	or	a8, a10, a8
40009aac:	c02000        	memw
40009aaf:	8909      	s32i.n	a8, a9, 0
40009ab1:	1df0      	retw.n
40009ab3 to 40009ab3  --------- Unknown territory !!!
40009ab4:	3ff430f8	; l32r
40009ab8:	364100        	entry	a1, 32
40009abb:	81a2ff        	l32r	a8, 0x40009944	; ( 0x3ff00040 )
40009abe:	7c7a      	movi.n	a10, -9
40009ac0:	91a2ff        	l32r	a9, 0x40009948	; ( 0x3ff00058 )
40009ac3:	dc32      	bnez.n	a2, 0x40009ada
40009ac5:	c02000        	memw
40009ac8:	b808      	l32i.n	a11, a8, 0
40009aca:	a0ab10        	and	a10, a11, a10
40009acd:	c02000        	memw
40009ad0:	a908      	s32i.n	a10, a8, 0
40009ad2:	c02000        	memw
40009ad5:	9809      	l32i.n	a9, a9, 0
40009ad7:	460400        	j	0x40009aec
40009ada:	c02000        	memw
40009add:	b809      	l32i.n	a11, a9, 0
40009adf:	a0ab10        	and	a10, a11, a10
40009ae2:	c02000        	memw
40009ae5:	a909      	s32i.n	a10, a9, 0
40009ae7:	c02000        	memw
40009aea:	9808      	l32i.n	a9, a8, 0
40009aec:	82a008        	movi	a8, 8
40009aef:	808910        	and	a8, a9, a8
40009af2:	56c801        	bnez	a8, 0x40009b12
40009af5:	91efff        	l32r	a9, 0x40009ab4	; ( 0x3ff430f8 )
40009af8:	c02000        	memw
40009afb:	8809      	l32i.n	a8, a9, 0
40009afd:	5678ff        	bnez	a8, 0x40009af8
40009b00:	8193ff        	l32r	a8, 0x4000994c	; ( 0x3ff43050 )
40009b03:	7ce9      	movi.n	a9, -2
40009b05:	c02000        	memw
40009b08:	a808      	l32i.n	a10, a8, 0
40009b0a:	909a10        	and	a9, a10, a9
40009b0d:	c02000        	memw
40009b10:	9908      	s32i.n	a9, a8, 0
40009b12:	1df0      	retw.n
40009b14 to 40009b1b  --------- Unknown territory !!!
40009b1c:	3ff44024	; l32r
40009b20 to 40009b53  --------- Unknown territory !!!
40009b54:	3ff44030	; l32r
40009b58 to 40009ed7  --------- Unknown territory !!!
40009ed8:	0ffd104c	; l32r
40009edc:	364100        	entry	a1, 32
40009edf:	81feff        	l32r	a8, 0x40009ed8	; ( 0x0ffd104c )
40009ee2:	404074        	extui	a4, a4, 0, 8
40009ee5:	8a33      	add.n	a3, a3, a8
40009ee7:	e09311        	slli	a9, a3, 2
40009eea:	8d02      	mov.n	a8, a2
40009eec:	165400        	beqz	a4, 0x40009ef5
40009eef:	82a040        	movi	a8, 64
40009ef2:	808220        	or	a8, a2, a8
40009ef5:	3c44      	movi.n	a4, 52
40009ef7:	471205        	beq	a2, a4, 0x40009f00
40009efa:	22a080        	movi	a2, 128
40009efd:	208820        	or	a8, a8, a2
40009f00:	c02000        	memw
40009f03:	8909      	s32i.n	a8, a9, 0
40009f05:	1df0      	retw.n
40009f07 to 40009f07  --------- Unknown territory !!!
40009f08:	0ffd114c	; l32r
40009f0c:	364100        	entry	a1, 32
40009f0f:	2c78      	movi.n	a8, 39
40009f11:	404074        	extui	a4, a4, 0, 8
40009f14:	505074        	extui	a5, a5, 0, 8
40009f17:	273837        	bltu	a8, a2, 0x40009f52
40009f1a:	0c18      	movi.n	a8, 1
40009f1c:	1cf9      	movi.n	a9, 31
40009f1e:	001240        	ssl	a2
40009f21:	0088a1        	sll	a8, a8
40009f24:	273905        	bltu	a9, a2, 0x40009f2d
40009f27:	91fdfe        	l32r	a9, 0x40009b1c	; ( 0x3ff44024 )
40009f2a:	860000        	j	0x40009f30
40009f2d:	9109ff        	l32r	a9, 0x40009b54	; ( 0x3ff44030 )
40009f30:	c02000        	memw
40009f33:	8909      	s32i.n	a8, a9, 0
40009f35:	8c44      	beqz.n	a4, 0x40009f3d
40009f37:	42a200        	movi	a4, 0x200
40009f3a:	403320        	or	a3, a3, a4
40009f3d:	8c45      	beqz.n	a5, 0x40009f45
40009f3f:	41f9f9        	l32r	a4, 0x40008724	; ( 0x00000800 )
40009f42:	403320        	or	a3, a3, a4
40009f45:	41f0ff        	l32r	a4, 0x40009f08	; ( 0x0ffd114c )
40009f48:	4a22      	add.n	a2, a2, a4
40009f4a:	e02211        	slli	a2, a2, 2
40009f4d:	c02000        	memw
40009f50:	3902      	s32i.n	a3, a2, 0
40009f52:	1df0      	retw.n
40009f54:	3ff9bf3c	; l32r
40009f58 to 40009fdb  --------- Unknown territory !!!
40009fdc:	364100        	entry	a1, 32
40009fdf:	202074        	extui	a2, a2, 0, 8
40009fe2:	2c78      	movi.n	a8, 39
40009fe4:	27b802        	bgeu	a8, a2, 0x40009fea
40009fe7:	463d00        	j	0x4000a0e0
40009fea:	81daff        	l32r	a8, 0x40009f54	; ( 0x3ff9bf3c )
40009fed:	8022a0        	addx4	a2, a2, a8
40009ff0:	2802      	l32i.n	a2, a2, 0
40009ff2:	a00200        	jx	a2
40009ff5 to 4000a0df  --------- Unknown territory !!!
4000a0e0:	1df0      	retw.n
4000a0e2 to 4000a0e3  --------- Unknown territory !!!
4000a0e4:	3ff9bfdc	; l32r
4000a0e8 to 4000a11b  --------- Unknown territory !!!
4000a11c:	364100        	entry	a1, 32
4000a11f:	202074        	extui	a2, a2, 0, 8
4000a122:	2c18      	movi.n	a8, 33
4000a124:	303074        	extui	a3, a3, 0, 8
4000a127:	27b802        	bgeu	a8, a2, 0x4000a12d
4000a12a:	863d00        	j	0x4000a224
4000a12d:	81edff        	l32r	a8, 0x4000a0e4	; ( 0x3ff9bfdc )
4000a130:	8022a0        	addx4	a2, a2, a8
4000a133:	2802      	l32i.n	a2, a2, 0
4000a135:	a00200        	jx	a2
4000a138 to 4000a223  --------- Unknown territory !!!
4000a224:	1df0      	retw.n
4000a226 to 4000a227  --------- Unknown territory !!!
4000a228:	3ff9c064	; l32r
4000a22c:	364100        	entry	a1, 32
4000a22f:	202074        	extui	a2, a2, 0, 8
4000a232:	2c18      	movi.n	a8, 33
4000a234:	27b802        	bgeu	a8, a2, 0x4000a23a
4000a237:	464100        	j	0x4000a340
4000a23a:	81fbff        	l32r	a8, 0x4000a228	; ( 0x3ff9c064 )
4000a23d:	8022a0        	addx4	a2, a2, a8
4000a240:	2802      	l32i.n	a2, a2, 0
4000a242:	a00200        	jx	a2
4000a245 to 4000a33f  --------- Unknown territory !!!
4000a340:	1df0      	retw.n
4000a342 to 4000a45f  --------- Unknown territory !!!
4000a460:	3ff9c174	; l32r
4000a464 to 4000a46b  --------- Unknown territory !!!
4000a46c:	ffffbfff	; l32r
4000a470 to 4000a483  --------- Unknown territory !!!
4000a484:	364100        	entry	a1, 32
4000a487:	202074        	extui	a2, a2, 0, 8
4000a48a:	2c78      	movi.n	a8, 39
4000a48c:	27b802        	bgeu	a8, a2, 0x4000a492
4000a48f:	46a600        	j	0x4000a72c
4000a492:	81f3ff        	l32r	a8, 0x4000a460	; ( 0x3ff9c174 )
4000a495:	8082a0        	addx4	a8, a2, a8
4000a498:	8808      	l32i.n	a8, a8, 0
4000a49a:	a00800        	jx	a8
4000a49d to 4000a72b  --------- Unknown territory !!!
4000a72c:	1df0      	retw.n
4000a72e to 4000a83b  --------- Unknown territory !!!
4000a83c:	3ff9eebe	; l32r
4000a840:	3ff9eec5	; l32r
4000a844:	aaaaaaab	; l32r
4000a848:	fffff000	; l32r
4000a84c:	ff000fff	; l32r
4000a850:	366100        	entry	a1, 48
4000a853:	208014        	extui	a8, a2, 0, 2
4000a856:	707074        	extui	a7, a7, 0, 8
4000a859:	9c08      	beqz.n	a8, 0x4000a86d
4000a85b:	a1f8ff        	l32r	a10, 0x4000a83c	; ( 0x3ff9eebe )
4000a85e:	b1f8ff        	l32r	a11, 0x4000a840	; ( 0x3ff9eec5 )
4000a861:	2c6c      	movi.n	a12, 38
4000a863:	254ffd        	call8	0x40007d54
4000a866:	3df0      	nop.n
4000a868:	86feff        	j	0x4000a866
4000a86b to 4000a86c  --------- Unknown territory !!!
4000a86d:	408014        	extui	a8, a4, 0, 2
4000a870:	9c18      	beqz.n	a8, 0x4000a885
4000a872:	a1f2ff        	l32r	a10, 0x4000a83c	; ( 0x3ff9eebe )
4000a875:	b1f2ff        	l32r	a11, 0x4000a840	; ( 0x3ff9eec5 )
4000a878:	2c7c      	movi.n	a12, 39
4000a87a:	a54dfd        	call8	0x40007d54
4000a87d:	3df0      	nop.n
4000a87f:	86feff        	j	0x4000a87d
4000a882 to 4000a884  --------- Unknown territory !!!
4000a885:	91efff        	l32r	a9, 0x4000a844	; ( 0xaaaaaaab )
4000a888:	6055c2        	quou	a5, a5, a6
4000a88b:	9033a2        	muluh	a3, a3, a9
4000a88e:	9d01      	mov.n	a9, a1
4000a890:	303341        	srli	a3, a3, 3
4000a893:	57b312        	bgeu	a3, a5, 0x4000a8a9
4000a896:	a1e9ff        	l32r	a10, 0x4000a83c	; ( 0x3ff9eebe )
4000a899:	b1e9ff        	l32r	a11, 0x4000a840	; ( 0x3ff9eec5 )
4000a89c:	2cbc      	movi.n	a12, 43
4000a89e:	654bfd        	call8	0x40007d54
4000a8a1:	3df0      	nop.n
4000a8a3:	86feff        	j	0x4000a8a1
4000a8a6 to 4000a8a8  --------- Unknown territory !!!
4000a8a9:	a1e8ff        	l32r	a10, 0x4000a84c	; ( 0xff000fff )
4000a8ac:	d19ee8        	l32r	a13, 0x40004b24	; ( 0xbfffffff )
4000a8af:	e1b5e1        	l32r	a14, 0x40002f84	; ( 0xdfffffff )
4000a8b2:	60b0b4        	extui	a11, a6, 0, 12
4000a8b5:	cd0a      	mov.n	a12, a10
4000a8b7:	c02000        	memw
4000a8ba:	3802      	l32i.n	a3, a2, 0
4000a8bc:	f1e3ff        	l32r	a15, 0x4000a848	; ( 0xfffff000 )
4000a8bf:	4912      	s32i.n	a4, a2, 4
4000a8c1:	f03310        	and	a3, a3, a15
4000a8c4:	b03320        	or	a3, a3, a11
4000a8c7:	c02000        	memw
4000a8ca:	3902      	s32i.n	a3, a2, 0
4000a8cc:	c02000        	memw
4000a8cf:	3802      	l32i.n	a3, a2, 0
4000a8d1:	f132d7        	l32r	a15, 0x4000059c	; ( 0x80000000 )
4000a8d4:	f03320        	or	a3, a3, a15
4000a8d7:	c02000        	memw
4000a8da:	3902      	s32i.n	a3, a2, 0
4000a8dc:	9cc7      	beqz.n	a7, 0x4000a8fc
4000a8de:	c02000        	memw
4000a8e1:	f802      	l32i.n	a15, a2, 0
4000a8e3:	c02000        	memw
4000a8e6:	3802      	l32i.n	a3, a2, 0
4000a8e8:	f0f0b4        	extui	a15, a15, 0, 12
4000a8eb:	40ff11        	slli	a15, a15, 12
4000a8ee:	a03310        	and	a3, a3, a10
4000a8f1:	f0f320        	or	a15, a3, a15
4000a8f4:	c02000        	memw
4000a8f7:	f902      	s32i.n	a15, a2, 0
4000a8f9:	060300        	j	0x4000a909
4000a8fc:	c02000        	memw
4000a8ff:	3802      	l32i.n	a3, a2, 0
4000a901:	c03310        	and	a3, a3, a12
4000a904:	c02000        	memw
4000a907:	3902      	s32i.n	a3, a2, 0
4000a909:	c02000        	memw
4000a90c:	3802      	l32i.n	a3, a2, 0
4000a90e:	1b88      	addi.n	a8, a8, 1
4000a910:	d03310        	and	a3, a3, a13
4000a913:	c02000        	memw
4000a916:	3902      	s32i.n	a3, a2, 0
4000a918:	c02000        	memw
4000a91b:	3802      	l32i.n	a3, a2, 0
4000a91d:	6a44      	add.n	a4, a4, a6
4000a91f:	e03310        	and	a3, a3, a14
4000a922:	c02000        	memw
4000a925:	3902      	s32i.n	a3, a2, 0
4000a927:	2929      	s32i.n	a2, a9, 8
4000a929:	cb32      	addi.n	a3, a2, 12
4000a92b:	57b806        	bgeu	a8, a5, 0x4000a935
4000a92e:	9d02      	mov.n	a9, a2
4000a930:	2d03      	mov.n	a2, a3
4000a932:	46e0ff        	j	0x4000a8b7
4000a935:	0c03      	movi.n	a3, 0
4000a937:	3922      	s32i.n	a3, a2, 8
4000a939:	4821      	l32i.n	a4, a1, 8
4000a93b:	38c1      	l32i.n	a3, a1, 48
4000a93d:	4903      	s32i.n	a4, a3, 0
4000a93f:	38d1      	l32i.n	a3, a1, 52
4000a941:	2903      	s32i.n	a2, a3, 0
4000a943:	1df0      	retw.n
4000a945 to 4000aa0b  --------- Unknown territory !!!
4000aa0c:	3ff58060	; l32r
4000aa10:	3ffae650	; l32r
4000aa14 to 4000aa1b  --------- Unknown territory !!!
4000aa1c:	3ffae65c	; l32r
4000aa20 to 4000ab97  --------- Unknown territory !!!
4000ab98:	3ffae664	; l32r
4000ab9c to 4000ae2b  --------- Unknown territory !!!
4000ae2c:	364100        	entry	a1, 32
4000ae2f:	81fbfe        	l32r	a8, 0x4000aa1c	; ( 0x3ffae65c )
4000ae32:	28b8      	l32i.n	a2, a8, 44
4000ae34:	1df0      	retw.n
4000ae36 to 4000ae37  --------- Unknown territory !!!
4000ae38:	4000ac78	; l32r
4000ae3c:	4000b184	; l32r
4000ae40:	4000a9a8	; l32r
4000ae44:	4000aabc	; l32r
4000ae48:	4000aa20	; l32r
4000ae4c:	3ffae5f0	; l32r
4000ae50:	3ffae3f0	; l32r
4000ae54:	4000b00c	; l32r
4000ae58:	368100        	entry	a1, 64
4000ae5b:	31f0fe        	l32r	a3, 0x4000aa1c	; ( 0x3ffae65c )
4000ae5e:	81f6ff        	l32r	a8, 0x4000ae38	; ( 0x4000ac78 )
4000ae61:	b1f9ff        	l32r	a11, 0x4000ae48	; ( 0x4000aa20 )
4000ae64:	826314        	s32i	a8, a3, 80
4000ae67:	81f5ff        	l32r	a8, 0x4000ae3c	; ( 0x4000b184 )
4000ae6a:	a1f6ff        	l32r	a10, 0x4000ae44	; ( 0x4000aabc )
4000ae6d:	826315        	s32i	a8, a3, 84
4000ae70:	81f4ff        	l32r	a8, 0x4000ae40	; ( 0x4000a9a8 )
4000ae73:	42a000        	movi	a4, 0
4000ae76:	cd03      	mov.n	a12, a3
4000ae78:	dd02      	mov.n	a13, a2
4000ae7a:	49b3      	s32i.n	a4, a3, 44
4000ae7c:	826316        	s32i	a8, a3, 88
4000ae7f:	a5a900        	call8	0x4000b918
4000ae82:	8145ff        	l32r	a8, 0x4000ab98	; ( 0x3ffae664 )
4000ae85:	a9c3      	s32i.n	a10, a3, 48
4000ae87:	8933      	s32i.n	a8, a3, 12
4000ae89:	4c08      	movi.n	a8, 64
4000ae8b:	4923      	s32i.n	a4, a3, 8
4000ae8d:	825300        	s16i	a8, a3, 0
4000ae90:	82c114        	addi	a8, a1, 20
4000ae93:	8901      	s32i.n	a8, a1, 0
4000ae95:	a1edff        	l32r	a10, 0x4000ae4c	; ( 0x3ffae5f0 )
4000ae98:	82c110        	addi	a8, a1, 16
4000ae9b:	c1edff        	l32r	a12, 0x4000ae50	; ( 0x3ffae3f0 )
4000ae9e:	fd04      	mov.n	a15, a4
4000aea0:	8911      	s32i.n	a8, a1, 4
4000aea2:	b2a060        	movi	a11, 96
4000aea5:	d2a200        	movi	a13, 0x200
4000aea8:	4c0e      	movi.n	a14, 64
4000aeaa:	659aff        	call8	0x4000a850
4000aead:	4851      	l32i.n	a4, a1, 20
4000aeaf:	81e9ff        	l32r	a8, 0x4000ae54	; ( 0x4000b00c )
4000aeb2:	4923      	s32i.n	a4, a3, 8
4000aeb4:	4841      	l32i.n	a4, a1, 16
4000aeb6:	8b44      	addi.n	a4, a4, 8
4000aeb8:	4933      	s32i.n	a4, a3, 12
4000aeba:	48c3      	l32i.n	a4, a3, 48
4000aebc:	421400        	l16ui	a4, a4, 0
4000aebf:	425301        	s16i	a4, a3, 2
4000aec2:	41d3fe        	l32r	a4, 0x4000aa10	; ( 0x3ffae650 )
4000aec5:	8904      	s32i.n	a8, a4, 0
4000aec7:	657800        	call8	0x4000b64c
4000aeca:	0c14      	movi.n	a4, 1
4000aecc:	49b3      	s32i.n	a4, a3, 44
4000aece:	1df0      	retw.n
4000aed0 to 4000b553  --------- Unknown territory !!!
4000b554:	3ffae3b8	; l32r
4000b558 to 4000b55b  --------- Unknown territory !!!
4000b55c:	3ff58010	; l32r
4000b560 to 4000b63b  --------- Unknown territory !!!
4000b63c:	3ff0012c	; l32r
4000b640:	4000b568	; l32r
4000b644:	3ff5800c	; l32r
4000b648:	040a8400	; l32r
4000b64c:	364100        	entry	a1, 32
4000b64f:	81effc        	l32r	a8, 0x4000aa0c	; ( 0x3ff58060 )
4000b652:	6cf9      	movi.n	a9, -17
4000b654:	c02000        	memw
4000b657:	a808      	l32i.n	a10, a8, 0
4000b659:	b1f9ff        	l32r	a11, 0x4000b640	; ( 0x4000b568 )
4000b65c:	909a10        	and	a9, a10, a9
4000b65f:	c02000        	memw
4000b662:	9908      	s32i.n	a9, a8, 0
4000b664:	81f6ff        	l32r	a8, 0x4000b63c	; ( 0x3ff0012c )
4000b667:	0c1a      	movi.n	a10, 1
4000b669:	c02000        	memw
4000b66c:	a908      	s32i.n	a10, a8, 0
4000b66e:	c2a000        	movi	a12, 0
4000b671:	a517fb        	call8	0x400067ec
4000b674:	91f5ff        	l32r	a9, 0x4000b648	; ( 0x040a8400 )
4000b677:	81f3ff        	l32r	a8, 0x4000b644	; ( 0x3ff5800c )
4000b67a:	0c2a      	movi.n	a10, 2
4000b67c:	c02000        	memw
4000b67f:	9908      	s32i.n	a9, a8, 0
4000b681:	6518fb        	call8	0x40006808
4000b684:	1df0      	retw.n
4000b686 to 4000b893  --------- Unknown territory !!!
4000b894:	3ff58074	; l32r
4000b898:	fffff0c0	; l32r
4000b89c:	364100        	entry	a1, 32
4000b89f:	81fdff        	l32r	a8, 0x4000b894	; ( 0x3ff58074 )
4000b8a2:	91fdff        	l32r	a9, 0x4000b898	; ( 0xfffff0c0 )
4000b8a5:	c02000        	memw
4000b8a8:	a808      	l32i.n	a10, a8, 0
4000b8aa:	909a10        	and	a9, a10, a9
4000b8ad:	a2a720        	movi	a10, 0x720
4000b8b0:	a09920        	or	a9, a9, a10
4000b8b3:	c02000        	memw
4000b8b6:	9908      	s32i.n	a9, a8, 0
4000b8b8:	1df0      	retw.n
4000b8ba to 4000b8bb  --------- Unknown territory !!!
4000b8bc:	3ff000d0	; l32r
4000b8c0:	3ff4b004	; l32r
4000b8c4:	01110033	; l32r
4000b8c8:	02320037	; l32r
4000b8cc:	3ff4b000	; l32r
4000b8d0:	11116666	; l32r
4000b8d4:	3ff58000	; l32r
4000b8d8:	3ff55078	; l32r
4000b8dc:	3ff5510c	; l32r
4000b8e0:	fffc01ff	; l32r
4000b8e4:	0000c800	; l32r
4000b8e8:	3ffae3ac	; l32r
4000b8ec:	3ffae2a0	; l32r
4000b8f0:	00030003	; l32r
4000b8f4:	fffcfffc	; l32r
4000b8f8:	3ff580ec	; l32r
4000b8fc:	3ff580f0	; l32r
4000b900:	3ff58040	; l32r
4000b904:	3ff550ec	; l32r
4000b908:	3ff550dc	; l32r
4000b90c:	00800040	; l32r
4000b910:	3ff550d4	; l32r
4000b914:	3ff58118	; l32r
4000b918:	368100        	entry	a1, 64
4000b91b:	610eff        	l32r	a6, 0x4000b554	; ( 0x3ffae3b8 )
4000b91e:	a2a009        	movi	a10, 9
4000b921:	226605        	s32i	a2, a6, 20
4000b924:	0c02      	movi.n	a2, 0
4000b926:	3966      	s32i.n	a3, a6, 24
4000b928:	2976      	s32i.n	a2, a6, 28
4000b92a:	2986      	s32i.n	a2, a6, 32
4000b92c:	2996      	s32i.n	a2, a6, 36
4000b92e:	49b6      	s32i.n	a4, a6, 44
4000b930:	25b5fe        	call8	0x4000a484
4000b933:	0caa      	movi.n	a10, 10
4000b935:	e5b4fe        	call8	0x4000a484
4000b938:	0cba      	movi.n	a10, 11
4000b93a:	a5b4fe        	call8	0x4000a484
4000b93d:	0c6a      	movi.n	a10, 6
4000b93f:	65b4fe        	call8	0x4000a484
4000b942:	0c7a      	movi.n	a10, 7
4000b944:	e5b3fe        	call8	0x4000a484
4000b947:	0c8a      	movi.n	a10, 8
4000b949:	a5b3fe        	call8	0x4000a484
4000b94c:	21dcff        	l32r	a2, 0x4000b8bc	; ( 0x3ff000d0 )
4000b94f:	2c03      	movi.n	a3, 32
4000b951:	c02000        	memw
4000b954:	8802      	l32i.n	a8, a2, 0
4000b956:	303820        	or	a3, a8, a3
4000b959:	c02000        	memw
4000b95c:	3902      	s32i.n	a3, a2, 0
4000b95e:	c02000        	memw
4000b961:	8802      	l32i.n	a8, a2, 0
4000b963:	32afdf        	movi	a3, -33
4000b966:	303810        	and	a3, a8, a3
4000b969:	c02000        	memw
4000b96c:	3902      	s32i.n	a3, a2, 0
4000b96e:	2d06      	mov.n	a2, a6
4000b970:	31d4ff        	l32r	a3, 0x4000b8c0	; ( 0x3ff4b004 )
4000b973:	6115df        	l32r	a6, 0x400035c8	; ( 0xf0000000 )
4000b976:	66450e        	bnei	a5, 4, 0x4000b988
4000b979:	c02000        	memw
4000b97c:	5803      	l32i.n	a5, a3, 0
4000b97e:	606510        	and	a6, a5, a6
4000b981:	51d0ff        	l32r	a5, 0x4000b8c4	; ( 0x01110033 )
4000b984:	c60200        	j	0x4000b993
4000b987 to 4000b987  --------- Unknown territory !!!
4000b988:	c02000        	memw
4000b98b:	5803      	l32i.n	a5, a3, 0
4000b98d:	606510        	and	a6, a5, a6
4000b990:	51ceff        	l32r	a5, 0x4000b8c8	; ( 0x02320037 )
4000b993:	506620        	or	a6, a6, a5
4000b996:	c02000        	memw
4000b999:	6903      	s32i.n	a6, a3, 0
4000b99b:	51cdff        	l32r	a5, 0x4000b8d0	; ( 0x11116666 )
4000b99e:	31cbff        	l32r	a3, 0x4000b8cc	; ( 0x3ff4b000 )
4000b9a1:	c02000        	memw
4000b9a4:	5903      	s32i.n	a5, a3, 0
4000b9a6:	65efff        	call8	0x4000b89c
4000b9a9:	31caff        	l32r	a3, 0x4000b8d4	; ( 0x3ff58000 )
4000b9ac:	0c35      	movi.n	a5, 3
4000b9ae:	c02000        	memw
4000b9b1:	6803      	l32i.n	a6, a3, 0
4000b9b3:	d2a10c        	movi	a13, 0x10c
4000b9b6:	505620        	or	a5, a6, a5
4000b9b9:	c02000        	memw
4000b9bc:	5903      	s32i.n	a5, a3, 0
4000b9be:	c02000        	memw
4000b9c1:	6803      	l32i.n	a6, a3, 0
4000b9c3:	7cc5      	movi.n	a5, -4
4000b9c5:	505610        	and	a5, a6, a5
4000b9c8:	c02000        	memw
4000b9cb:	5903      	s32i.n	a5, a3, 0
4000b9cd:	c02000        	memw
4000b9d0:	6803      	l32i.n	a6, a3, 0
4000b9d2:	52a310        	movi	a5, 0x310
4000b9d5:	505620        	or	a5, a6, a5
4000b9d8:	c02000        	memw
4000b9db:	5903      	s32i.n	a5, a3, 0
4000b9dd:	c02000        	memw
4000b9e0:	6803      	l32i.n	a6, a3, 0
4000b9e2:	51a2fa        	l32r	a5, 0x4000a46c	; ( 0xffffbfff )
4000b9e5:	a1c0ff        	l32r	a10, 0x4000b8e8	; ( 0x3ffae3ac )
4000b9e8:	505610        	and	a5, a6, a5
4000b9eb:	61bbff        	l32r	a6, 0x4000b8d8	; ( 0x3ff55078 )
4000b9ee:	c02000        	memw
4000b9f1:	5903      	s32i.n	a5, a3, 0
4000b9f3:	c02000        	memw
4000b9f6:	8806      	l32i.n	a8, a6, 0
4000b9f8:	52a100        	movi	a5, 0x100
4000b9fb:	505820        	or	a5, a8, a5
4000b9fe:	c02000        	memw
4000ba01:	5906      	s32i.n	a5, a6, 0
4000ba03:	61b6ff        	l32r	a6, 0x4000b8dc	; ( 0x3ff5510c )
4000ba06:	51b6ff        	l32r	a5, 0x4000b8e0	; ( 0xfffc01ff )
4000ba09:	c02000        	memw
4000ba0c:	8806      	l32i.n	a8, a6, 0
4000ba0e:	c1b7ff        	l32r	a12, 0x4000b8ec	; ( 0x3ffae2a0 )
4000ba11:	505810        	and	a5, a8, a5
4000ba14:	81b4ff        	l32r	a8, 0x4000b8e4	; ( 0x0000c800 )
4000ba17:	0ccb      	movi.n	a11, 12
4000ba19:	805520        	or	a5, a5, a8
4000ba1c:	c02000        	memw
4000ba1f:	5906      	s32i.n	a5, a6, 0
4000ba21:	52a10c        	movi	a5, 0x10c
4000ba24:	525200        	s16i	a5, a2, 0
4000ba27:	52c114        	addi	a5, a1, 20
4000ba2a:	5901      	s32i.n	a5, a1, 0
4000ba2c:	52c110        	addi	a5, a1, 16
4000ba2f:	5911      	s32i.n	a5, a1, 4
4000ba31:	ed0d      	mov.n	a14, a13
4000ba33:	0c1f      	movi.n	a15, 1
4000ba35:	a5e1fe        	call8	0x4000a850
4000ba38:	c02000        	memw
4000ba3b:	6803      	l32i.n	a6, a3, 0
4000ba3d:	51acff        	l32r	a5, 0x4000b8f0	; ( 0x00030003 )
4000ba40:	505620        	or	a5, a6, a5
4000ba43:	c02000        	memw
4000ba46:	5903      	s32i.n	a5, a3, 0
4000ba48:	c02000        	memw
4000ba4b:	6803      	l32i.n	a6, a3, 0
4000ba4d:	51a9ff        	l32r	a5, 0x4000b8f4	; ( 0xfffcfffc )
4000ba50:	505610        	and	a5, a6, a5
4000ba53:	c02000        	memw
4000ba56:	5903      	s32i.n	a5, a3, 0
4000ba58:	3851      	l32i.n	a3, a1, 20
4000ba5a:	51a7ff        	l32r	a5, 0x4000b8f8	; ( 0x3ff580ec )
4000ba5d:	6841      	l32i.n	a6, a1, 16
4000ba5f:	c02000        	memw
4000ba62:	3905      	s32i.n	a3, a5, 0
4000ba64:	51a6ff        	l32r	a5, 0x4000b8fc	; ( 0x3ff580f0 )
4000ba67:	c02000        	memw
4000ba6a:	6905      	s32i.n	a6, a5, 0
4000ba6c:	6932      	s32i.n	a6, a2, 12
4000ba6e:	5158e0        	l32r	a5, 0x40003bd0	; ( 0x10000000 )
4000ba71:	61a3ff        	l32r	a6, 0x4000b900	; ( 0x3ff58040 )
4000ba74:	3912      	s32i.n	a3, a2, 4
4000ba76:	c02000        	memw
4000ba79:	526600        	s32i	a5, a6, 0
4000ba7c:	c02000        	memw
4000ba7f:	5806      	l32i.n	a5, a6, 0
4000ba81:	d675ff        	bgez	a5, 0x4000ba7c
4000ba84:	51f3f2        	l32r	a5, 0x40008650	; ( 0x000fffff )
4000ba87:	503310        	and	a3, a3, a5
4000ba8a:	c02000        	memw
4000ba8d:	3906      	s32i.n	a3, a6, 0
4000ba8f:	51a1de        	l32r	a5, 0x40003514	; ( 0x00800000 )
4000ba92:	319cff        	l32r	a3, 0x4000b904	; ( 0x3ff550ec )
4000ba95:	c02000        	memw
4000ba98:	5903      	s32i.n	a5, a3, 0
4000ba9a:	519cff        	l32r	a5, 0x4000b90c	; ( 0x00800040 )
4000ba9d:	319aff        	l32r	a3, 0x4000b908	; ( 0x3ff550dc )
4000baa0:	c02000        	memw
4000baa3:	5903      	s32i.n	a5, a3, 0
4000baa5:	519aff        	l32r	a5, 0x4000b910	; ( 0x3ff550d4 )
4000baa8:	7cf3      	movi.n	a3, -1
4000baaa:	c02000        	memw
4000baad:	3905      	s32i.n	a3, a5, 0
4000baaf:	51abfe        	l32r	a5, 0x4000b55c	; ( 0x3ff58010 )
4000bab2:	c02000        	memw
4000bab5:	3905      	s32i.n	a3, a5, 0
4000bab7:	3197ff        	l32r	a3, 0x4000b914	; ( 0x3ff58118 )
4000baba:	52ac00        	movi	a5, 0xfffffc00
4000babd:	c02000        	memw
4000bac0:	6803      	l32i.n	a6, a3, 0
4000bac2:	505610        	and	a5, a6, a5
4000bac5:	1c06      	movi.n	a6, 16
4000bac7:	605520        	or	a5, a5, a6
4000baca:	c02000        	memw
4000bacd:	5903      	s32i.n	a5, a3, 0
4000bacf:	1df0      	retw.n
4000bad1 to 4000bf33  --------- Unknown territory !!!
4000bf34:	364100        	entry	a1, 32
4000bf37:	1cf8      	movi.n	a8, 31
4000bf39:	273834        	bltu	a8, a2, 0x4000bf71
4000bf3c:	91f0d1        	l32r	a9, 0x400006fc	; ( 0x3ff9c2b4 )
4000bf3f:	2a99      	add.n	a9, a9, a2
4000bf41:	920900        	l8ui	a9, a9, 0
4000bf44:	f67929        	bgeui	a9, 7, 0x4000bf71
4000bf47:	9196d1        	l32r	a9, 0x400005a0	; ( 0x3ffe0658 )
4000bf4a:	2088c0        	sub	a8, a8, a2
4000bf4d:	9088b0        	addx8	a8, a8, a9
4000bf50:	9808      	l32i.n	a9, a8, 0
4000bf52:	8ca3      	beqz.n	a3, 0x4000bf60
4000bf54:	3908      	s32i.n	a3, a8, 0
4000bf56:	4918      	s32i.n	a4, a8, 4
4000bf58:	31ead1        	l32r	a3, 0x40000700	; ( 0x4000c01c )
4000bf5b:	060200        	j	0x4000bf67
4000bf5e to 4000bf5f  --------- Unknown territory !!!
4000bf60:	31e8d1        	l32r	a3, 0x40000700	; ( 0x4000c01c )
4000bf63:	2918      	s32i.n	a2, a8, 4
4000bf65:	3908      	s32i.n	a3, a8, 0
4000bf67:	3039c0        	sub	a3, a9, a3
4000bf6a:	0c02      	movi.n	a2, 0
4000bf6c:	302993        	movnez	a2, a9, a3
4000bf6f:	1df0      	retw.n
4000bf71:	0c02      	movi.n	a2, 0
4000bf73:	1df0      	retw.n
4000bf75 to 4000bf87  --------- Unknown territory !!!
4000bf88:	362100        	entry	a1, 16
4000bf8b:	4183d1        	l32r	a4, 0x40000598	; ( 0x3ffe0650 )
4000bf8e:	706600        	rsil	a7, 6
4000bf91:	3804      	l32i.n	a3, a4, 0
4000bf93:	6814      	l32i.n	a6, a4, 4
4000bf95:	205320        	or	a5, a3, a2
4000bf98:	5904      	s32i.n	a5, a4, 0
4000bf9a:	605510        	and	a5, a5, a6
4000bf9d:	50e413        	wsr.intenable	a5
4000bfa0:	70e613        	wsr.ps	a7
4000bfa3:	102000        	rsync
4000bfa6:	2d03      	mov.n	a2, a3
4000bfa8:	1df0      	retw.n
4000bfaa to 4000bfab  --------- Unknown territory !!!
4000bfac:	362100        	entry	a1, 16
4000bfaf:	417ad1        	l32r	a4, 0x40000598	; ( 0x3ffe0650 )
4000bfb2:	706600        	rsil	a7, 6
4000bfb5:	3804      	l32i.n	a3, a4, 0
4000bfb7:	6814      	l32i.n	a6, a4, 4
4000bfb9:	205320        	or	a5, a3, a2
4000bfbc:	205530        	xor	a5, a5, a2
4000bfbf:	5904      	s32i.n	a5, a4, 0
4000bfc1:	605510        	and	a5, a5, a6
4000bfc4:	50e413        	wsr.intenable	a5
4000bfc7:	70e613        	wsr.ps	a7
4000bfca:	102000        	rsync
4000bfcd:	2d03      	mov.n	a2, a3
4000bfcf:	1df0      	retw.n
4000bfd1 to 4000c04f  --------- Unknown territory !!!
4000c050:	362100        	entry	a1, 16
4000c053:	20ea03        	rsr.ccount	a2
4000c056:	1df0      	retw.n
4000c058 to 4000c288  --------- Unknown territory !!!
4000c289:	769409        	loopnez	a4, 0x4000c296
4000c28c:	620300        	l8ui	a6, a3, 0
4000c28f:	1b33      	addi.n	a3, a3, 1
4000c291:	624500        	s8i	a6, a5, 0
4000c294:	1b55      	addi.n	a5, a5, 1
4000c296:	1df0      	retw.n
4000c298:	b674ed        	bltui	a4, 7, 0x4000c289
4000c29b:	620300        	l8ui	a6, a3, 0
4000c29e:	1b33      	addi.n	a3, a3, 1
4000c2a0:	42c4ff        	addi	a4, a4, -1
4000c2a3:	624500        	s8i	a6, a5, 0
4000c2a6:	52c501        	addi	a5, a5, 1
4000c2a9:	176527        	bbci	a5, 1, 0x4000c2d4
4000c2ac:	b664d9        	bltui	a4, 6, 0x4000c289
4000c2af:	620300        	l8ui	a6, a3, 0
4000c2b2:	720301        	l8ui	a7, a3, 1
4000c2b5:	2b33      	addi.n	a3, a3, 2
4000c2b7:	42c4fe        	addi	a4, a4, -2
4000c2ba:	624500        	s8i	a6, a5, 0
4000c2bd:	724501        	s8i	a7, a5, 1
4000c2c0:	2b55      	addi.n	a5, a5, 2
4000c2c2:	860300        	j	0x4000c2d4
4000c2c5 to 4000c2c7  --------- Unknown territory !!!
4000c2c8:	362100        	entry	a1, 16
4000c2cb:	205220        	or	a5, a2, a2
4000c2ce:	07e2c6        	bbsi	a2, 0, 0x4000c298
4000c2d1:	17e2d7        	bbsi	a2, 1, 0x4000c2ac
4000c2d4:	407441        	srli	a7, a4, 4
4000c2d7:	208301        	slli	a8, a3, 30
4000c2da:	56a805        	bnez	a8, 0x4000c338
4000c2dd:	769715        	loopnez	a7, 0x4000c2f6
4000c2e0:	6803      	l32i.n	a6, a3, 0
4000c2e2:	7813      	l32i.n	a7, a3, 4
4000c2e4:	6905      	s32i.n	a6, a5, 0
4000c2e6:	6823      	l32i.n	a6, a3, 8
4000c2e8:	7915      	s32i.n	a7, a5, 4
4000c2ea:	7833      	l32i.n	a7, a3, 12
4000c2ec:	6925      	s32i.n	a6, a5, 8
4000c2ee:	32c310        	addi	a3, a3, 16
4000c2f1:	7935      	s32i.n	a7, a5, 12
4000c2f3:	52c510        	addi	a5, a5, 16
4000c2f6:	37640b        	bbci	a4, 3, 0x4000c305
4000c2f9:	6803      	l32i.n	a6, a3, 0
4000c2fb:	7813      	l32i.n	a7, a3, 4
4000c2fd:	8b33      	addi.n	a3, a3, 8
4000c2ff:	6905      	s32i.n	a6, a5, 0
4000c301:	7915      	s32i.n	a7, a5, 4
4000c303:	8b55      	addi.n	a5, a5, 8
4000c305:	27e407        	bbsi	a4, 2, 0x4000c310
4000c308:	17e414        	bbsi	a4, 1, 0x4000c320
4000c30b:	07e421        	bbsi	a4, 0, 0x4000c330
4000c30e:	1df0      	retw.n
4000c310:	6803      	l32i.n	a6, a3, 0
4000c312:	4b33      	addi.n	a3, a3, 4
4000c314:	6905      	s32i.n	a6, a5, 0
4000c316:	4b55      	addi.n	a5, a5, 4
4000c318:	17e404        	bbsi	a4, 1, 0x4000c320
4000c31b:	07e411        	bbsi	a4, 0, 0x4000c330
4000c31e:	1df0      	retw.n
4000c320:	621300        	l16ui	a6, a3, 0
4000c323:	2b33      	addi.n	a3, a3, 2
4000c325:	625500        	s16i	a6, a5, 0
4000c328:	2b55      	addi.n	a5, a5, 2
4000c32a:	07e402        	bbsi	a4, 0, 0x4000c330
4000c32d:	1df0      	retw.n
4000c32f to 4000c32f  --------- Unknown territory !!!
4000c330:	620300        	l8ui	a6, a3, 0
4000c333:	624500        	s8i	a6, a5, 0
4000c336:	1df0      	retw.n
4000c338:	16a4ff        	beqz	a4, 0x4000c336
4000c33b:	002340        	ssa8l	a3
4000c33e:	80be15        	extui	a11, a8, 30, 2
4000c341:	b033c0        	sub	a3, a3, a11
4000c344:	6803      	l32i.n	a6, a3, 0
4000c346:	769721        	loopnez	a7, 0x4000c36b
4000c349:	7813      	l32i.n	a7, a3, 4
4000c34b:	8823      	l32i.n	a8, a3, 8
4000c34d:	606781        	src	a6, a7, a6
4000c350:	6905      	s32i.n	a6, a5, 0
4000c352:	9833      	l32i.n	a9, a3, 12
4000c354:	707881        	src	a7, a8, a7
4000c357:	7915      	s32i.n	a7, a5, 4
4000c359:	6843      	l32i.n	a6, a3, 16
4000c35b:	808981        	src	a8, a9, a8
4000c35e:	8925      	s32i.n	a8, a5, 8
4000c360:	32c310        	addi	a3, a3, 16
4000c363:	909681        	src	a9, a6, a9
4000c366:	9935      	s32i.n	a9, a5, 12
4000c368:	52c510        	addi	a5, a5, 16
4000c36b:	376415        	bbci	a4, 3, 0x4000c384
4000c36e:	7813      	l32i.n	a7, a3, 4
4000c370:	8823      	l32i.n	a8, a3, 8
4000c372:	606781        	src	a6, a7, a6
4000c375:	6905      	s32i.n	a6, a5, 0
4000c377:	8b33      	addi.n	a3, a3, 8
4000c379:	707881        	src	a7, a8, a7
4000c37c:	7915      	s32i.n	a7, a5, 4
4000c37e:	52c508        	addi	a5, a5, 8
4000c381:	806820        	or	a6, a8, a8
4000c384:	27640c        	bbci	a4, 2, 0x4000c394
4000c387:	7813      	l32i.n	a7, a3, 4
4000c389:	4b33      	addi.n	a3, a3, 4
4000c38b:	606781        	src	a6, a7, a6
4000c38e:	6905      	s32i.n	a6, a5, 0
4000c390:	4b55      	addi.n	a5, a5, 4
4000c392:	6d07      	mov.n	a6, a7
4000c394:	ba33      	add.n	a3, a3, a11
4000c396:	17e406        	bbsi	a4, 1, 0x4000c3a0
4000c399:	07e418        	bbsi	a4, 0, 0x4000c3b5
4000c39c:	1df0      	retw.n
4000c39e to 4000c39f  --------- Unknown territory !!!
4000c3a0:	620300        	l8ui	a6, a3, 0
4000c3a3:	720301        	l8ui	a7, a3, 1
4000c3a6:	2b33      	addi.n	a3, a3, 2
4000c3a8:	624500        	s8i	a6, a5, 0
4000c3ab:	724501        	s8i	a7, a5, 1
4000c3ae:	2b55      	addi.n	a5, a5, 2
4000c3b0:	07e401        	bbsi	a4, 0, 0x4000c3b5
4000c3b3:	1df0      	retw.n
4000c3b5:	620300        	l8ui	a6, a3, 0
4000c3b8:	624500        	s8i	a6, a5, 0
4000c3bb:	1df0      	retw.n
4000c3bd to 4000c424  --------- Unknown territory !!!
4000c425:	769404        	loopnez	a4, 0x4000c42d
4000c428:	324500        	s8i	a3, a5, 0
4000c42b:	1b55      	addi.n	a5, a5, 1
4000c42d:	1df0      	retw.n
4000c42f to 4000c42f  --------- Unknown territory !!!
4000c430:	b684f1        	bltui	a4, 8, 0x4000c425
4000c433:	324500        	s8i	a3, a5, 0
4000c436:	1b55      	addi.n	a5, a5, 1
4000c438:	0b44      	addi.n	a4, a4, -1
4000c43a:	176528        	bbci	a5, 1, 0x4000c466
4000c43d:	b684e4        	bltui	a4, 8, 0x4000c425
4000c440:	325500        	s16i	a3, a5, 0
4000c443:	2b55      	addi.n	a5, a5, 2
4000c445:	42c4fe        	addi	a4, a4, -2
4000c448:	860600        	j	0x4000c466
4000c44b to 4000c44b  --------- Unknown territory !!!
4000c44c:	362100        	entry	a1, 16
4000c44f:	303074        	extui	a3, a3, 0, 8
4000c452:	807311        	slli	a7, a3, 8
4000c455:	703320        	or	a3, a3, a7
4000c458:	007311        	slli	a7, a3, 16
4000c45b:	703320        	or	a3, a3, a7
4000c45e:	5d02      	mov.n	a5, a2
4000c460:	07e2cc        	bbsi	a2, 0, 0x4000c430
4000c463:	17e2d6        	bbsi	a2, 1, 0x4000c43d
4000c466:	407441        	srli	a7, a4, 4
4000c469:	76970a        	loopnez	a7, 0x4000c477
4000c46c:	3905      	s32i.n	a3, a5, 0
4000c46e:	3915      	s32i.n	a3, a5, 4
4000c470:	3925      	s32i.n	a3, a5, 8
4000c472:	3935      	s32i.n	a3, a5, 12
4000c474:	52c510        	addi	a5, a5, 16
4000c477:	376406        	bbci	a4, 3, 0x4000c481
4000c47a:	3905      	s32i.n	a3, a5, 0
4000c47c:	3915      	s32i.n	a3, a5, 4
4000c47e:	52c508        	addi	a5, a5, 8
4000c481:	276403        	bbci	a4, 2, 0x4000c488
4000c484:	3905      	s32i.n	a3, a5, 0
4000c486:	4b55      	addi.n	a5, a5, 4
4000c488:	176404        	bbci	a4, 1, 0x4000c490
4000c48b:	325500        	s16i	a3, a5, 0
4000c48e:	2b55      	addi.n	a5, a5, 2
4000c490:	076402        	bbci	a4, 0, 0x4000c496
4000c493:	324500        	s8i	a3, a5, 0
4000c496:	1df0      	retw.n
4000c498 to 4000cff7  --------- Unknown territory !!!
4000cff8:	364100        	entry	a1, 32
4000cffb:	ad05      	mov.n	a10, a5
4000cffd:	8d04      	mov.n	a8, a4
4000cfff:	bd02      	mov.n	a11, a2
4000d001:	9d03      	mov.n	a9, a3
4000d003:	562519        	bnez	a5, 0x4000d199
4000d006:	473302        	bltu	a3, a4, 0x4000d00c
4000d009:	062200        	j	0x4000d095
4000d00c:	50f440        	nsau	a5, a4
4000d00f:	16d501        	beqz	a5, 0x4000d030
4000d012:	509060        	neg	a9, a5
4000d015:	001540        	ssl	a5
4000d018:	0033a1        	sll	a3, a3
4000d01b:	000940        	ssr	a9
4000d01e:	209091        	srl	a9, a2
4000d021:	001540        	ssl	a5
4000d024:	0084a1        	sll	a8, a4
4000d027:	309920        	or	a9, a9, a3
4000d02a:	001540        	ssl	a5
4000d02d:	00b2a1        	sll	a11, a2
4000d030:	8040f5        	extui	a4, a8, 16, 16
4000d033:	40a9e2        	remu	a10, a9, a4
4000d036:	8030f4        	extui	a3, a8, 0, 16
4000d039:	4099c2        	quou	a9, a9, a4
4000d03c:	00aa11        	slli	a10, a10, 16
4000d03f:	b050f5        	extui	a5, a11, 16, 16
4000d042:	302982        	mull	a2, a9, a3
4000d045:	505a20        	or	a5, a10, a5
4000d048:	27b514        	bgeu	a5, a2, 0x4000d060
4000d04b:	8a55      	add.n	a5, a5, a8
4000d04d:	0ba9      	addi.n	a10, a9, -1
4000d04f:	87350b        	bltu	a5, a8, 0x4000d05e
4000d052:	27b508        	bgeu	a5, a2, 0x4000d05e
4000d055:	92c9fe        	addi	a9, a9, -2
4000d058:	8a55      	add.n	a5, a5, a8
4000d05a:	860000        	j	0x4000d060
4000d05d to 4000d05d  --------- Unknown territory !!!
4000d05e:	9d0a      	mov.n	a9, a10
4000d060:	2025c0        	sub	a2, a5, a2
4000d063:	4052e2        	remu	a5, a2, a4
4000d066:	4042c2        	quou	a4, a2, a4
4000d069:	b0b0f4        	extui	a11, a11, 0, 16
4000d06c:	002511        	slli	a2, a5, 16
4000d06f:	303482        	mull	a3, a4, a3
4000d072:	b0b220        	or	a11, a2, a11
4000d075:	37bb0f        	bgeu	a11, a3, 0x4000d088
4000d078:	8abb      	add.n	a11, a11, a8
4000d07a:	22c4ff        	addi	a2, a4, -1
4000d07d:	873b05        	bltu	a11, a8, 0x4000d086
4000d080:	42c4fe        	addi	a4, a4, -2
4000d083:	373b01        	bltu	a11, a3, 0x4000d088
4000d086:	4d02      	mov.n	a4, a2
4000d088:	009911        	slli	a9, a9, 16
4000d08b:	902420        	or	a2, a4, a9
4000d08e:	0c03      	movi.n	a3, 0
4000d090:	067a00        	j	0x4000d27c
4000d093 to 4000d094  --------- Unknown territory !!!
4000d095:	cc34      	bnez.n	a4, 0x4000d09c
4000d097:	0c18      	movi.n	a8, 1
4000d099:	4088c2        	quou	a8, a8, a4
4000d09c:	50f840        	nsau	a5, a8
4000d09f:	ccd5      	bnez.n	a5, 0x4000d0b0
4000d0a1:	8093c0        	sub	a9, a3, a8
4000d0a4:	8040f5        	extui	a4, a8, 16, 16
4000d0a7:	80a0f4        	extui	a10, a8, 0, 16
4000d0aa:	0c13      	movi.n	a3, 1
4000d0ac:	462300        	j	0x4000d13d
4000d0af to 4000d0af  --------- Unknown territory !!!
4000d0b0:	2c0a      	movi.n	a10, 32
4000d0b2:	50aac0        	sub	a10, a10, a5
4000d0b5:	001540        	ssl	a5
4000d0b8:	0088a1        	sll	a8, a8
4000d0bb:	000a40        	ssr	a10
4000d0be:	30d091        	srl	a13, a3
4000d0c1:	8040f5        	extui	a4, a8, 16, 16
4000d0c4:	001540        	ssl	a5
4000d0c7:	0033a1        	sll	a3, a3
4000d0ca:	000a40        	ssr	a10
4000d0cd:	20f091        	srl	a15, a2
4000d0d0:	40cde2        	remu	a12, a13, a4
4000d0d3:	30ff20        	or	a15, a15, a3
4000d0d6:	80a0f4        	extui	a10, a8, 0, 16
4000d0d9:	40ddc2        	quou	a13, a13, a4
4000d0dc:	00cc11        	slli	a12, a12, 16
4000d0df:	f030f5        	extui	a3, a15, 16, 16
4000d0e2:	a0ed82        	mull	a14, a13, a10
4000d0e5:	c0c320        	or	a12, a3, a12
4000d0e8:	001540        	ssl	a5
4000d0eb:	00b2a1        	sll	a11, a2
4000d0ee:	e7bc16        	bgeu	a12, a14, 0x4000d108
4000d0f1:	8acc      	add.n	a12, a12, a8
4000d0f3:	0b2d      	addi.n	a2, a13, -1
4000d0f5:	873c0d        	bltu	a12, a8, 0x4000d106
4000d0f8:	e7bc0a        	bgeu	a12, a14, 0x4000d106
4000d0fb:	d2cdfe        	addi	a13, a13, -2
4000d0fe:	8acc      	add.n	a12, a12, a8
4000d100:	060100        	j	0x4000d108
4000d103 to 4000d105  --------- Unknown territory !!!
4000d106:	dd02      	mov.n	a13, a2
4000d108:	e0ccc0        	sub	a12, a12, a14
4000d10b:	409ce2        	remu	a9, a12, a4
4000d10e:	40ccc2        	quou	a12, a12, a4
4000d111:	009911        	slli	a9, a9, 16
4000d114:	f0f0f4        	extui	a15, a15, 0, 16
4000d117:	a02c82        	mull	a2, a12, a10
4000d11a:	f09920        	or	a9, a9, a15
4000d11d:	27b913        	bgeu	a9, a2, 0x4000d134
4000d120:	8a99      	add.n	a9, a9, a8
4000d122:	0b3c      	addi.n	a3, a12, -1
4000d124:	87390a        	bltu	a9, a8, 0x4000d132
4000d127:	27b907        	bgeu	a9, a2, 0x4000d132
4000d12a:	c2ccfe        	addi	a12, a12, -2
4000d12d:	8a99      	add.n	a9, a9, a8
4000d12f:	460000        	j	0x4000d134
4000d132:	cd03      	mov.n	a12, a3
4000d134:	003d11        	slli	a3, a13, 16
4000d137:	2099c0        	sub	a9, a9, a2
4000d13a:	303c20        	or	a3, a12, a3
4000d13d:	40c9e2        	remu	a12, a9, a4
4000d140:	4099c2        	quou	a9, a9, a4
4000d143:	00cc11        	slli	a12, a12, 16
4000d146:	b050f5        	extui	a5, a11, 16, 16
4000d149:	a02982        	mull	a2, a9, a10
4000d14c:	505c20        	or	a5, a12, a5
4000d14f:	27b515        	bgeu	a5, a2, 0x4000d168
4000d152:	8a55      	add.n	a5, a5, a8
4000d154:	0bc9      	addi.n	a12, a9, -1
4000d156:	87350c        	bltu	a5, a8, 0x4000d166
4000d159:	27b509        	bgeu	a5, a2, 0x4000d166
4000d15c:	92c9fe        	addi	a9, a9, -2
4000d15f:	8a55      	add.n	a5, a5, a8
4000d161:	c60000        	j	0x4000d168
4000d164 to 4000d165  --------- Unknown territory !!!
4000d166:	9d0c      	mov.n	a9, a12
4000d168:	2025c0        	sub	a2, a5, a2
4000d16b:	4052e2        	remu	a5, a2, a4
4000d16e:	4042c2        	quou	a4, a2, a4
4000d171:	b0b0f4        	extui	a11, a11, 0, 16
4000d174:	002511        	slli	a2, a5, 16
4000d177:	a0a482        	mull	a10, a4, a10
4000d17a:	b0b220        	or	a11, a2, a11
4000d17d:	a7bb0f        	bgeu	a11, a10, 0x4000d190
4000d180:	8abb      	add.n	a11, a11, a8
4000d182:	22c4ff        	addi	a2, a4, -1
4000d185:	873b05        	bltu	a11, a8, 0x4000d18e
4000d188:	42c4fe        	addi	a4, a4, -2
4000d18b:	a73b01        	bltu	a11, a10, 0x4000d190
4000d18e:	4d02      	mov.n	a4, a2
4000d190:	002911        	slli	a2, a9, 16
4000d193:	202420        	or	a2, a4, a2
4000d196:	863800        	j	0x4000d27c
4000d199:	57b302        	bgeu	a3, a5, 0x4000d19f
4000d19c:	063600        	j	0x4000d278
4000d19f:	80f540        	nsau	a8, a5
4000d1a2:	dca8      	bnez.n	a8, 0x4000d1c0
4000d1a4:	32a001        	movi	a3, 1
4000d1a7:	47b202        	bgeu	a2, a4, 0x4000d1ad
4000d1aa:	803820        	or	a3, a8, a8
4000d1ad:	0c12      	movi.n	a2, 1
4000d1af:	973a01        	bltu	a10, a9, 0x4000d1b4
4000d1b2:	0c02      	movi.n	a2, 0
4000d1b4:	202320        	or	a2, a3, a2
4000d1b7:	202074        	extui	a2, a2, 0, 8
4000d1ba:	0c03      	movi.n	a3, 0
4000d1bc:	062f00        	j	0x4000d27c
4000d1bf to 4000d1bf  --------- Unknown territory !!!
4000d1c0:	2c0a      	movi.n	a10, 32
4000d1c2:	80aac0        	sub	a10, a10, a8
4000d1c5:	000a40        	ssr	a10
4000d1c8:	409091        	srl	a9, a4
4000d1cb:	001840        	ssl	a8
4000d1ce:	0055a1        	sll	a5, a5
4000d1d1:	505920        	or	a5, a9, a5
4000d1d4:	000a40        	ssr	a10
4000d1d7:	30b091        	srl	a11, a3
4000d1da:	5090f5        	extui	a9, a5, 16, 16
4000d1dd:	001840        	ssl	a8
4000d1e0:	0033a1        	sll	a3, a3
4000d1e3:	000a40        	ssr	a10
4000d1e6:	20a091        	srl	a10, a2
4000d1e9:	30ea20        	or	a14, a10, a3
4000d1ec:	50c0f4        	extui	a12, a5, 0, 16
4000d1ef:	90abe2        	remu	a10, a11, a9
4000d1f2:	90bbc2        	quou	a11, a11, a9
4000d1f5:	00aa11        	slli	a10, a10, 16
4000d1f8:	e030f5        	extui	a3, a14, 16, 16
4000d1fb:	c0db82        	mull	a13, a11, a12
4000d1fe:	30aa20        	or	a10, a10, a3
4000d201:	001840        	ssl	a8
4000d204:	0044a1        	sll	a4, a4
4000d207:	d7ba15        	bgeu	a10, a13, 0x4000d220
4000d20a:	5aaa      	add.n	a10, a10, a5
4000d20c:	0b3b      	addi.n	a3, a11, -1
4000d20e:	573a0c        	bltu	a10, a5, 0x4000d21e
4000d211:	d7ba09        	bgeu	a10, a13, 0x4000d21e
4000d214:	b2cbfe        	addi	a11, a11, -2
4000d217:	5aaa      	add.n	a10, a10, a5
4000d219:	c60000        	j	0x4000d220
4000d21c to 4000d21d  --------- Unknown territory !!!
4000d21e:	bd03      	mov.n	a11, a3
4000d220:	d0aac0        	sub	a10, a10, a13
4000d223:	903ae2        	remu	a3, a10, a9
4000d226:	909ac2        	quou	a9, a10, a9
4000d229:	003311        	slli	a3, a3, 16
4000d22c:	e0e0f4        	extui	a14, a14, 0, 16
4000d22f:	c0c982        	mull	a12, a9, a12
4000d232:	e03320        	or	a3, a3, a14
4000d235:	c7b313        	bgeu	a3, a12, 0x4000d24c
4000d238:	5a33      	add.n	a3, a3, a5
4000d23a:	0ba9      	addi.n	a10, a9, -1
4000d23c:	57330a        	bltu	a3, a5, 0x4000d24a
4000d23f:	c7b307        	bgeu	a3, a12, 0x4000d24a
4000d242:	92c9fe        	addi	a9, a9, -2
4000d245:	5a33      	add.n	a3, a3, a5
4000d247:	460000        	j	0x4000d24c
4000d24a:	9d0a      	mov.n	a9, a10
4000d24c:	00bb11        	slli	a11, a11, 16
4000d24f:	b09920        	or	a9, a9, a11
4000d252:	4059a2        	muluh	a5, a9, a4
4000d255:	c033c0        	sub	a3, a3, a12
4000d258:	404982        	mull	a4, a9, a4
4000d25b:	573312        	bltu	a3, a5, 0x4000d271
4000d25e:	579308        	bne	a3, a5, 0x4000d26a
4000d261:	001840        	ssl	a8
4000d264:	0022a1        	sll	a2, a2
4000d267:	473206        	bltu	a2, a4, 0x4000d271
4000d26a:	2d09      	mov.n	a2, a9
4000d26c:	0c03      	movi.n	a3, 0
4000d26e:	860200        	j	0x4000d27c
4000d271:	0b29      	addi.n	a2, a9, -1
4000d273:	0c03      	movi.n	a3, 0
4000d275:	c60000        	j	0x4000d27c
4000d278:	0c03      	movi.n	a3, 0
4000d27a:	2d03      	mov.n	a2, a3
4000d27c:	1df0      	retw.n
4000d27e to 4000d27f  --------- Unknown territory !!!
4000d280:	364100        	entry	a1, 32
4000d283:	8d04      	mov.n	a8, a4
4000d285:	209220        	or	a9, a2, a2
4000d288:	bd03      	mov.n	a11, a3
4000d28a:	56a514        	bnez	a5, 0x4000d3d8
4000d28d:	47b368        	bgeu	a3, a4, 0x4000d2f9
4000d290:	a0f440        	nsau	a10, a4
4000d293:	16da01        	beqz	a10, 0x4000d2b4
4000d296:	a0b060        	neg	a11, a10
4000d299:	001a40        	ssl	a10
4000d29c:	0033a1        	sll	a3, a3
4000d29f:	000b40        	ssr	a11
4000d2a2:	20b091        	srl	a11, a2
4000d2a5:	001a40        	ssl	a10
4000d2a8:	0084a1        	sll	a8, a4
4000d2ab:	30bb20        	or	a11, a11, a3
4000d2ae:	001a40        	ssl	a10
4000d2b1:	0092a1        	sll	a9, a2
4000d2b4:	8040f5        	extui	a4, a8, 16, 16
4000d2b7:	402be2        	remu	a2, a11, a4
4000d2ba:	80c0f4        	extui	a12, a8, 0, 16
4000d2bd:	40bbc2        	quou	a11, a11, a4
4000d2c0:	002211        	slli	a2, a2, 16
4000d2c3:	9030f5        	extui	a3, a9, 16, 16
4000d2c6:	c0bb82        	mull	a11, a11, a12
4000d2c9:	303220        	or	a3, a2, a3
4000d2cc:	b7b309        	bgeu	a3, a11, 0x4000d2d9
4000d2cf:	8a33      	add.n	a3, a3, a8
4000d2d1:	873304        	bltu	a3, a8, 0x4000d2d9
4000d2d4:	b7b301        	bgeu	a3, a11, 0x4000d2d9
4000d2d7:	8a33      	add.n	a3, a3, a8
4000d2d9:	b033c0        	sub	a3, a3, a11
4000d2dc:	4023e2        	remu	a2, a3, a4
4000d2df:	4043c2        	quou	a4, a3, a4
4000d2e2:	002211        	slli	a2, a2, 16
4000d2e5:	9090f4        	extui	a9, a9, 0, 16
4000d2e8:	c04482        	mull	a4, a4, a12
4000d2eb:	909220        	or	a9, a2, a9
4000d2ee:	473902        	bltu	a9, a4, 0x4000d2f4
4000d2f1:	c63400        	j	0x4000d3c8
4000d2f4:	063100        	j	0x4000d3bc
4000d2f7 to 4000d2f8  --------- Unknown territory !!!
4000d2f9:	cc34      	bnez.n	a4, 0x4000d300
4000d2fb:	0c18      	movi.n	a8, 1
4000d2fd:	4088c2        	quou	a8, a8, a4
4000d300:	a0f840        	nsau	a10, a8
4000d303:	ccaa      	bnez.n	a10, 0x4000d311
4000d305:	8033c0        	sub	a3, a3, a8
4000d308:	8040f5        	extui	a4, a8, 16, 16
4000d30b:	80b0f4        	extui	a11, a8, 0, 16
4000d30e:	461c00        	j	0x4000d383
4000d311:	2c05      	movi.n	a5, 32
4000d313:	a055c0        	sub	a5, a5, a10
4000d316:	001a40        	ssl	a10
4000d319:	0088a1        	sll	a8, a8
4000d31c:	000540        	ssr	a5
4000d31f:	30c091        	srl	a12, a3
4000d322:	8040f5        	extui	a4, a8, 16, 16
4000d325:	001a40        	ssl	a10
4000d328:	0033a1        	sll	a3, a3
4000d32b:	000540        	ssr	a5
4000d32e:	20d091        	srl	a13, a2
4000d331:	30dd20        	or	a13, a13, a3
4000d334:	80b0f4        	extui	a11, a8, 0, 16
4000d337:	403ce2        	remu	a3, a12, a4
4000d33a:	40ccc2        	quou	a12, a12, a4
4000d33d:	003311        	slli	a3, a3, 16
4000d340:	d050f5        	extui	a5, a13, 16, 16
4000d343:	b0cc82        	mull	a12, a12, a11
4000d346:	305520        	or	a5, a5, a3
4000d349:	001a40        	ssl	a10
4000d34c:	0092a1        	sll	a9, a2
4000d34f:	c7b509        	bgeu	a5, a12, 0x4000d35c
4000d352:	8a55      	add.n	a5, a5, a8
4000d354:	873504        	bltu	a5, a8, 0x4000d35c
4000d357:	c7b501        	bgeu	a5, a12, 0x4000d35c
4000d35a:	8a55      	add.n	a5, a5, a8
4000d35c:	c055c0        	sub	a5, a5, a12
4000d35f:	4035e2        	remu	a3, a5, a4
4000d362:	4055c2        	quou	a5, a5, a4
4000d365:	003311        	slli	a3, a3, 16
4000d368:	d0d0f4        	extui	a13, a13, 0, 16
4000d36b:	b05582        	mull	a5, a5, a11
4000d36e:	d03320        	or	a3, a3, a13
4000d371:	57b30b        	bgeu	a3, a5, 0x4000d380
4000d374:	803380        	add	a3, a3, a8
4000d377:	873305        	bltu	a3, a8, 0x4000d380
4000d37a:	57b302        	bgeu	a3, a5, 0x4000d380
4000d37d:	803380        	add	a3, a3, a8
4000d380:	5033c0        	sub	a3, a3, a5
4000d383:	4023e2        	remu	a2, a3, a4
4000d386:	4033c2        	quou	a3, a3, a4
4000d389:	002211        	slli	a2, a2, 16
4000d38c:	9050f5        	extui	a5, a9, 16, 16
4000d38f:	b03382        	mull	a3, a3, a11
4000d392:	505220        	or	a5, a2, a5
4000d395:	37b50b        	bgeu	a5, a3, 0x4000d3a4
4000d398:	805580        	add	a5, a5, a8
4000d39b:	873505        	bltu	a5, a8, 0x4000d3a4
4000d39e:	37b502        	bgeu	a5, a3, 0x4000d3a4
4000d3a1:	805580        	add	a5, a5, a8
4000d3a4:	3055c0        	sub	a5, a5, a3
4000d3a7:	4025e2        	remu	a2, a5, a4
4000d3aa:	4045c2        	quou	a4, a5, a4
4000d3ad:	002211        	slli	a2, a2, 16
4000d3b0:	9090f4        	extui	a9, a9, 0, 16
4000d3b3:	b04482        	mull	a4, a4, a11
4000d3b6:	909220        	or	a9, a2, a9
4000d3b9:	47b90b        	bgeu	a9, a4, 0x4000d3c8
4000d3bc:	809980        	add	a9, a9, a8
4000d3bf:	873905        	bltu	a9, a8, 0x4000d3c8
4000d3c2:	47b902        	bgeu	a9, a4, 0x4000d3c8
4000d3c5:	809980        	add	a9, a9, a8
4000d3c8:	4099c0        	sub	a9, a9, a4
4000d3cb:	000a40        	ssr	a10
4000d3ce:	902091        	srl	a2, a9
4000d3d1:	0c03      	movi.n	a3, 0
4000d3d3:	864400        	j	0x4000d4e9
4000d3d6 to 4000d3d7  --------- Unknown territory !!!
4000d3d8:	57b302        	bgeu	a3, a5, 0x4000d3de
4000d3db:	864200        	j	0x4000d4e9
4000d3de:	c0f540        	nsau	a12, a5
4000d3e1:	dcfc      	bnez.n	a12, 0x4000d404
4000d3e3:	47b202        	bgeu	a2, a4, 0x4000d3e9
4000d3e6:	37b513        	bgeu	a5, a3, 0x4000d3fd
4000d3e9:	4022c0        	sub	a2, a2, a4
4000d3ec:	5033c0        	sub	a3, a3, a5
4000d3ef:	42a001        	movi	a4, 1
4000d3f2:	273902        	bltu	a9, a2, 0x4000d3f8
4000d3f5:	42a000        	movi	a4, 0
4000d3f8:	40b3c0        	sub	a11, a3, a4
4000d3fb:	9d02      	mov.n	a9, a2
4000d3fd:	2d09      	mov.n	a2, a9
4000d3ff:	3d0b      	mov.n	a3, a11
4000d401:	063900        	j	0x4000d4e9
4000d404:	2c08      	movi.n	a8, 32
4000d406:	c088c0        	sub	a8, a8, a12
4000d409:	000840        	ssr	a8
4000d40c:	409091        	srl	a9, a4
4000d40f:	001c40        	ssl	a12
4000d412:	0055a1        	sll	a5, a5
4000d415:	505920        	or	a5, a9, a5
4000d418:	000840        	ssr	a8
4000d41b:	30b091        	srl	a11, a3
4000d41e:	5090f5        	extui	a9, a5, 16, 16
4000d421:	001c40        	ssl	a12
4000d424:	0033a1        	sll	a3, a3
4000d427:	000840        	ssr	a8
4000d42a:	20f091        	srl	a15, a2
4000d42d:	90abe2        	remu	a10, a11, a9
4000d430:	30ff20        	or	a15, a15, a3
4000d433:	50d0f4        	extui	a13, a5, 0, 16
4000d436:	90bbc2        	quou	a11, a11, a9
4000d439:	00aa11        	slli	a10, a10, 16
4000d43c:	f030f5        	extui	a3, a15, 16, 16
4000d43f:	d0eb82        	mull	a14, a11, a13
4000d442:	30aa20        	or	a10, a10, a3
4000d445:	001c40        	ssl	a12
4000d448:	0044a1        	sll	a4, a4
4000d44b:	001c40        	ssl	a12
4000d44e:	0022a1        	sll	a2, a2
4000d451:	e7ba13        	bgeu	a10, a14, 0x4000d468
4000d454:	5aaa      	add.n	a10, a10, a5
4000d456:	0b3b      	addi.n	a3, a11, -1
4000d458:	573a0a        	bltu	a10, a5, 0x4000d466
4000d45b:	e7ba07        	bgeu	a10, a14, 0x4000d466
4000d45e:	b2cbfe        	addi	a11, a11, -2
4000d461:	5aaa      	add.n	a10, a10, a5
4000d463:	460000        	j	0x4000d468
4000d466:	bd03      	mov.n	a11, a3
4000d468:	e0aac0        	sub	a10, a10, a14
4000d46b:	903ae2        	remu	a3, a10, a9
4000d46e:	909ac2        	quou	a9, a10, a9
4000d471:	003311        	slli	a3, a3, 16
4000d474:	f0f0f4        	extui	a15, a15, 0, 16
4000d477:	d0d982        	mull	a13, a9, a13
4000d47a:	f03320        	or	a3, a3, a15
4000d47d:	d7b313        	bgeu	a3, a13, 0x4000d494
4000d480:	5a33      	add.n	a3, a3, a5
4000d482:	0ba9      	addi.n	a10, a9, -1
4000d484:	57330a        	bltu	a3, a5, 0x4000d492
4000d487:	d7b307        	bgeu	a3, a13, 0x4000d492
4000d48a:	92c9fe        	addi	a9, a9, -2
4000d48d:	5a33      	add.n	a3, a3, a5
4000d48f:	460000        	j	0x4000d494
4000d492:	9d0a      	mov.n	a9, a10
4000d494:	00bb11        	slli	a11, a11, 16
4000d497:	b09920        	or	a9, a9, a11
4000d49a:	40b9a2        	muluh	a11, a9, a4
4000d49d:	d033c0        	sub	a3, a3, a13
4000d4a0:	409982        	mull	a9, a9, a4
4000d4a3:	ad0b      	mov.n	a10, a11
4000d4a5:	b73305        	bltu	a3, a11, 0x4000d4ae
4000d4a8:	b79316        	bne	a3, a11, 0x4000d4c2
4000d4ab:	97b213        	bgeu	a2, a9, 0x4000d4c2
4000d4ae:	4049c0        	sub	a4, a9, a4
4000d4b1:	505bc0        	sub	a5, a11, a5
4000d4b4:	0c1a      	movi.n	a10, 1
4000d4b6:	473902        	bltu	a9, a4, 0x4000d4bc
4000d4b9:	a2a000        	movi	a10, 0
4000d4bc:	a0a5c0        	sub	a10, a5, a10
4000d4bf:	460000        	j	0x4000d4c4
4000d4c2:	4d09      	mov.n	a4, a9
4000d4c4:	4042c0        	sub	a4, a2, a4
4000d4c7:	a033c0        	sub	a3, a3, a10
4000d4ca:	0c19      	movi.n	a9, 1
4000d4cc:	473201        	bltu	a2, a4, 0x4000d4d1
4000d4cf:	0c09      	movi.n	a9, 0
4000d4d1:	9033c0        	sub	a3, a3, a9
4000d4d4:	001840        	ssl	a8
4000d4d7:	0023a1        	sll	a2, a3
4000d4da:	000c40        	ssr	a12
4000d4dd:	404091        	srl	a4, a4
4000d4e0:	402220        	or	a2, a2, a4
4000d4e3:	000c40        	ssr	a12
4000d4e6:	303091        	srl	a3, a3
4000d4e9:	1df0      	retw.n
4000d4eb to 400102b7  --------- Unknown territory !!!
400102b8:	3ffb8360	; l32r
400102bc to 40011653  --------- Unknown territory !!!
40011654:	3ffae70c	; l32r
40011658 to 40014413  --------- Unknown territory !!!
40014414:	3ffb8d40	; l32r
40014418:	3ff71064	; l32r
4001441c to 4002dad3  --------- Unknown territory !!!
4002dad4:	000098        	lsi	f0, a0, 0x260
4002dad7:	02b2a1        	l32ai	a0, a2, 0x284
4002dada:	daba      	add.n	a11, a10, a13
4002dadc:	b41c0c        	lsi	f11, a12, 48
4002dadf:	ad01      	mov.n	a10, a1
4002dae1:	9991      	s32i.n	a9, a1, 36
4002dae3:	89c1      	s32i.n	a8, a1, 48
4002dae5:	d9b1      	s32i.n	a13, a1, 44
4002dae7:	257ede        	call8	0x4000c2c8
4002daea:	88c1      	l32i.n	a8, a1, 48
4002daec:	72a20a        	movi	a7, 0x20a
4002daef:	a2a212        	movi	a10, 0x212
4002daf2:	7a74      	add.n	a7, a4, a7
4002daf4:	aaa4      	add.n	a10, a4, a10
4002daf6:	c2a0ae        	movi	a12, 174
4002daf9:	7941      	s32i.n	a7, a1, 16
4002dafb:	a951      	s32i.n	a10, a1, 20
4002dafd:	cac8      	add.n	a12, a8, a12
4002daff:	d8b1      	l32i.n	a13, a1, 44
4002db01:	f21c00        	l16ui	a15, a12, 0
4002db04:	c21c01        	l16ui	a12, a12, 2
4002db07:	921d00        	l16ui	a9, a13, 0
4002db0a:	a21d01        	l16ui	a10, a13, 2
4002db0d:	00bc11        	slli	a11, a12, 16
4002db10:	d2a0b6        	movi	a13, 182
4002db13:	c2a0b2        	movi	a12, 178
4002db16:	cac8      	add.n	a12, a8, a12
4002db18:	da88      	add.n	a8, a8, a13
4002db1a:	e21800        	l16ui	a14, a8, 0
4002db1d:	d21801        	l16ui	a13, a8, 2
4002db20:	8891      	l32i.n	a8, a1, 36
4002db22:	99a1      	s32i.n	a9, a1, 40
4002db24:	88d8      	l32i.n	a8, a8, 52
4002db26:	921c00        	l16ui	a9, a12, 0
4002db29:	c21c01        	l16ui	a12, a12, 2
4002db2c:	8991      	s32i.n	a8, a1, 36
4002db2e:	00cc11        	slli	a12, a12, 16
4002db31:	82210a        	l32i	a8, a1, 40
4002db34:	00dd11        	slli	a13, a13, 16
4002db37:	e0dd20        	or	a13, a13, a14
4002db3a:	f0bb20        	or	a11, a11, a15
4002db3d:	e2241f        	l32i	a14, a4, 124
4002db40:	f22420        	l32i	a15, a4, 128
4002db43:	90cc20        	or	a12, a12, a9
4002db46:	00aa11        	slli	a10, a10, 16
4002db49:	922109        	l32i	a9, a1, 36
4002db4c:	80aa20        	or	a10, a10, a8
4002db4f:	e00900        	callx8	a9
4002db52:	8802      	l32i.n	a8, a2, 0
4002db54:	c20440        	l8ui	a12, a4, 64
4002db57:	822895        	l32i	a8, a8, 0x254
4002db5a:	bd07      	mov.n	a11, a7
4002db5c:	60a620        	or	a10, a6, a6
4002db5f:	e00800        	callx8	a8
4002db62:	4802      	l32i.n	a4, a2, 0
4002db64:	ad03      	mov.n	a10, a3
4002db66:	4224ae        	l32i	a4, a4, 0x2b8
4002db69:	e00400        	callx8	a4
4002db6c:	4805      	l32i.n	a4, a5, 0
4002db6e:	ad03      	mov.n	a10, a3
4002db70:	422442        	l32i	a4, a4, 0x108
4002db73:	b2a061        	movi	a11, 97
4002db76:	e00400        	callx8	a4
4002db79:	4881      	l32i.n	a4, a1, 32
4002db7b:	2204fb        	l8ui	a2, a4, 251
4002db7e:	bcc2      	beqz.n	a2, 0x4002dbbe
4002db80:	21b58e        	l32r	a2, 0x40011654	; ( 0x3ffae70c )
4002db83:	ad03      	mov.n	a10, a3
4002db85:	222200        	l32i	a2, a2, 0
4002db88:	60b620        	or	a11, a6, a6
4002db8b:	22d204        	addmi	a2, a2, 0x400
4002db8e:	222216        	l32i	a2, a2, 88
4002db91:	e00200        	callx8	a2
4002db94:	860900        	j	0x4002dbbe
4002db97 to 4002dbbd  --------- Unknown territory !!!
4002dbbe:	0c02      	movi.n	a2, 0
4002dbc0:	1df0      	retw.n
4002dbc2 to 4002f5d3  --------- Unknown territory !!!
4002f5d4:	00001000	; l32r
4002f5d8 to 4002fa87  --------- Unknown territory !!!
4002fa88:	03ffffff	; l32r
4002fa8c to 400305ff  --------- Unknown territory !!!
40030600:	c5064200	; l32r
40030604 to 400307e7  --------- Unknown territory !!!
400307e8:	c0a1ca00	; l32r
400307ec to 400343eb  --------- Unknown territory !!!
400343ec:	00000a36	; l32r
400343f0 to 40034d93  --------- Unknown territory !!!
40034d94:	ffff1fff	; l32r
40034d98 to 40034d9b  --------- Unknown territory !!!
40034d9c:	00000a33	; l32r
40034da0:	ffffe0ff	; l32r
40034da4 to 40034da7  --------- Unknown territory !!!
40034da8:	00000a34	; l32r
40034dac to 40034dcf  --------- Unknown territory !!!
40034dd0:	3ff9914c	; l32r
40034dd4 to 40039727  --------- Unknown territory !!!
40039728:	ffffa019	; l32r
4003972c to 4003ae43  --------- Unknown territory !!!
4003ae44:	08000000	; l32r
4003ae48 to 4003bf17  --------- Unknown territory !!!
4003bf18:	f7ffffff	; l32r
4003bf1c to 4003c6ff  --------- Unknown territory !!!
4003c700:	40000000	; l32r
4003c704 to 4003fae3  --------- Unknown territory !!!
4003fae4:	3ff9de52	; l32r
4003fae8 to 4003fafb  --------- Unknown territory !!!
4003fafc:	3ff9e182	; l32r
4003fb00 to 40040337  --------- Unknown territory !!!
40040338:	3ffb2250	; l32r
4004033c to 4004035f  --------- Unknown territory !!!
40040360:	3ffb2254	; l32r
40040364:	3ffb2256	; l32r
40040368:	3ffb2268	; l32r
4004036c:	3ffb227a	; l32r
40040370:	3ff9d305	; l32r
40040374:	3ff9d347	; l32r
40040378:	3ff9d384	; l32r
4004037c:	3ffb22b2	; l32r
40040380:	3ffb22b4	; l32r
40040384 to 40040563  --------- Unknown territory !!!
40040564:	003252        	lsi	f0, a2, 0x148
40040567:	00217d        	lsi	f0, a1, 0x1f4
4004056a:	ff          	.byte 0xff
4004056b:	c02000        	memw
4004056e:	525200        	s16i	a5, a2, 0
40040571:	217bff        	l32r	a2, 0x40040360	; ( 0x3ffb2254 )
40040574:	c02000        	memw
40040577:	525200        	s16i	a5, a2, 0
4004057a:	217aff        	l32r	a2, 0x40040364	; ( 0x3ffb2256 )
4004057d:	c02000        	memw
40040580:	525200        	s16i	a5, a2, 0
40040583:	2179ff        	l32r	a2, 0x40040368	; ( 0x3ffb2268 )
40040586:	5d09      	mov.n	a5, a9
40040588:	321200        	l16ui	a3, a2, 0
4004058b:	3030c4        	extui	a3, a3, 0, 13
4004058e:	c02000        	memw
40040591:	325200        	s16i	a3, a2, 0
40040594:	2176ff        	l32r	a2, 0x4004036c	; ( 0x3ffb227a )
40040597:	321200        	l16ui	a3, a2, 0
4004059a:	3030f4        	extui	a3, a3, 0, 16
4004059d:	403310        	and	a3, a3, a4
400405a0:	0c14      	movi.n	a4, 1
400405a2:	403320        	or	a3, a3, a4
400405a5:	420e23        	l8ui	a4, a14, 35
400405a8:	c02000        	memw
400405ab:	325200        	s16i	a3, a2, 0
400405ae:	31f9d1        	l32r	a3, 0x40034d94	; ( 0xffff1fff )
400405b1:	304411        	slli	a4, a4, 13
400405b4:	220e22        	l8ui	a2, a14, 34
400405b7:	370412        	bnone	a4, a3, 0x400405cd
400405ba:	313f3f        	l32r	a3, 0x400102b8	; ( 0x3ffb8360 )
400405bd:	a16cff        	l32r	a10, 0x40040370	; ( 0x3ff9d305 )
400405c0:	3803      	l32i.n	a3, a3, 0
400405c2:	b148fd        	l32r	a11, 0x4003fae4	; ( 0x3ff9de52 )
400405c5:	3853      	l32i.n	a3, a3, 20
400405c7:	c1f5d1        	l32r	a12, 0x40034d9c	; ( 0x00000a33 )
400405ca:	e00300        	callx8	a3
400405cd:	81f4d1        	l32r	a8, 0x40034da0	; ( 0xffffe0ff )
400405d0:	803211        	slli	a3, a2, 8
400405d3:	870312        	bnone	a3, a8, 0x400405e9
400405d6:	81383f        	l32r	a8, 0x400102b8	; ( 0x3ffb8360 )
400405d9:	a166ff        	l32r	a10, 0x40040374	; ( 0x3ff9d347 )
400405dc:	8808      	l32i.n	a8, a8, 0
400405de:	b141fd        	l32r	a11, 0x4003fae4	; ( 0x3ff9de52 )
400405e1:	8858      	l32i.n	a8, a8, 20
400405e3:	c1f1d1        	l32r	a12, 0x40034da8	; ( 0x00000a34 )
400405e6:	e00800        	callx8	a8
400405e9:	6c08      	movi.n	a8, -32
400405eb:	870212        	bnone	a2, a8, 0x40040601
400405ee:	81323f        	l32r	a8, 0x400102b8	; ( 0x3ffb8360 )
400405f1:	a161ff        	l32r	a10, 0x40040378	; ( 0x3ff9d384 )
400405f4:	8808      	l32i.n	a8, a8, 0
400405f6:	b13bfd        	l32r	a11, 0x4003fae4	; ( 0x3ff9de52 )
400405f9:	8858      	l32i.n	a8, a8, 20
400405fb:	c17ccf        	l32r	a12, 0x400343ec	; ( 0x00000a36 )
400405fe:	e00800        	callx8	a8
40040601:	303420        	or	a3, a4, a3
40040604:	202320        	or	a2, a3, a2
40040607:	815dff        	l32r	a8, 0x4004037c	; ( 0x3ffb22b2 )
4004060a:	2020f4        	extui	a2, a2, 0, 16
4004060d:	c02000        	memw
40040610:	225800        	s16i	a2, a8, 0
40040613:	215bff        	l32r	a2, 0x40040380	; ( 0x3ffb22b4 )
40040616:	0c03      	movi.n	a3, 0
40040618:	c02000        	memw
4004061b:	325200        	s16i	a3, a2, 0
4004061e:	21ecd1        	l32r	a2, 0x40034dd0	; ( 0x3ff9914c )
40040621:	8141e4        	l32r	a8, 0x40039728	; ( 0xffffa019 )
40040624:	220207        	l8ui	a2, a2, 7
40040627:	ad07      	mov.n	a10, a7
40040629:	204004        	extui	a4, a2, 0, 1
4004062c:	604411        	slli	a4, a4, 10
4004062f:	804420        	or	a4, a4, a8
40040632:	208104        	extui	a8, a2, 1, 1
40040635:	708811        	slli	a8, a8, 9
40040638:	804420        	or	a4, a4, a8
4004063b:	208204        	extui	a8, a2, 2, 1
4004063e:	808811        	slli	a8, a8, 8
40040641:	804420        	or	a4, a4, a8
40040644:	208304        	extui	a8, a2, 3, 1
40040647:	908811        	slli	a8, a8, 7
4004064a:	202404        	extui	a2, a2, 4, 1
4004064d:	804420        	or	a4, a4, a8
40040650:	a02211        	slli	a2, a2, 6
40040653:	202420        	or	a2, a4, a2
40040656:	4138ff        	l32r	a4, 0x40040338	; ( 0x3ffb2250 )
40040659:	2020f4        	extui	a2, a2, 0, 16
4004065c:	c02000        	memw
4004065f:	225400        	s16i	a2, a4, 0
40040662:	2805      	l32i.n	a2, a5, 0
40040664:	6927      	s32i.n	a6, a7, 8
40040666:	222237        	l32i	a2, a2, 220
40040669:	e00200        	callx8	a2
4004066c:	cc5a      	bnez.n	a10, 0x40040675
4004066e:	32473c        	s8i	a3, a7, 60
40040671:	c60400        	j	0x40040688
40040674 to 40040674  --------- Unknown territory !!!
40040675:	21103f        	l32r	a2, 0x400102b8	; ( 0x3ffb8360 )
40040678:	a121fd        	l32r	a10, 0x4003fafc	; ( 0x3ff9e182 )
4004067b:	2802      	l32i.n	a2, a2, 0
4004067d:	b119fd        	l32r	a11, 0x4003fae4	; ( 0x3ff9de52 )
40040680:	2852      	l32i.n	a2, a2, 20
40040682:	c2a24f        	movi	a12, 0x24f
40040685:	e00200        	callx8	a2
40040688:	0c02      	movi.n	a2, 0
4004068a:	060a00        	j	0x400406b6
4004068d:	210a3f        	l32r	a2, 0x400102b8	; ( 0x3ffb8360 )
40040690:	a11bfd        	l32r	a10, 0x4003fafc	; ( 0x3ff9e182 )
40040693:	2802      	l32i.n	a2, a2, 0
40040695:	b113fd        	l32r	a11, 0x4003fae4	; ( 0x3ff9de52 )
40040698:	2852      	l32i.n	a2, a2, 20
4004069a:	c2a256        	movi	a12, 0x256
4004069d:	060400        	j	0x400406b1
400406a0 to 400406a7  --------- Unknown territory !!!
400406a8:	fd0eb102	; l32r
400406ac to 400406b0  --------- Unknown territory !!!
400406b1:	e00200        	callx8	a2
400406b4:	0cc2      	movi.n	a2, 12
400406b6:	a1574f        	l32r	a10, 0x40014414	; ( 0x3ffb8d40 )
400406b9:	32a0ff        	movi	a3, 255
400406bc:	420a1c        	l8ui	a4, a10, 28
400406bf:	37141f        	beq	a4, a3, 0x400406e2
400406c2:	31554f        	l32r	a3, 0x40014418	; ( 0x3ff71064 )
400406c5:	0c46      	movi.n	a6, 4
400406c7:	d04411        	slli	a4, a4, 3
400406ca:	c02000        	memw
400406cd:	5803      	l32i.n	a5, a3, 0
400406cf:	001440        	ssl	a4
400406d2:	0046a1        	sll	a4, a6
400406d5:	7cf6      	movi.n	a6, -1
400406d7:	404630        	xor	a4, a6, a4
400406da:	504410        	and	a4, a4, a5
400406dd:	c02000        	memw
400406e0:	4903      	s32i.n	a4, a3, 0
400406e2:	1df0      	retw.n
400406e4 to 4004bac7  --------- Unknown territory !!!
4004bac8:	3ffae70c	; l32r
4004bacc to 4004d2e3  --------- Unknown territory !!!
4004d2e4:	00040000	; l32r
4004d2e8 to 4004e493  --------- Unknown territory !!!
4004e494:	80000000	; l32r
4004e498 to 40051347  --------- Unknown territory !!!
40051348:	04000000	; l32r
4005134c to 40052503  --------- Unknown territory !!!
40052504:	3171e5        	l32r	a3, 0x4004bac8	; ( 0x3ffae70c )
40052507:	2d0a      	mov.n	a2, a10
40052509:	8803      	l32i.n	a8, a3, 0
4005250b:	82d806        	addmi	a8, a8, 0x600
4005250e:	a22823        	l32i	a10, a8, 140
40052511:	e00a00        	callx8	a10
40052514:	0c08      	movi.n	a8, 0
40052516:	a24201        	s8i	a10, a2, 1
40052519:	824200        	s8i	a8, a2, 0
4005251c:	3803      	l32i.n	a3, a3, 0
4005251e:	ad02      	mov.n	a10, a2
40052520:	32235c        	l32i	a3, a3, 0x170
40052523:	0c02      	movi.n	a2, 0
40052525:	e00300        	callx8	a3
40052528:	1df0      	retw.n
4005252a to 4005579f  --------- Unknown territory !!!
400557a0:	7fffffff	; l32r
400557a4 to 400561bf  --------- Unknown territory !!!
400561c0:	00400000	; l32r
400561c4 to 400561eb  --------- Unknown territory !!!
400561ec:	ff000000	; l32r
400561f0 to 4005a953  --------- Unknown territory !!!
4005a954:	40090000	; l32r
4005a958:	3ffd2000	; l32r
4005a95c:	4005acf0	; l32r
4005a960:	bff70000	; l32r
4005a964:	a5a5a5a5	; l32r
4005a968:	400912f0	; l32r
4005a96c:	0000e000	; l32r
4005a970:	4005a9e4	; l32r
4005a974:	c002e000	; l32r
4005a978:	3ffd230c	; l32r
4005a97c:	3ff9eeef	; l32r
4005a980:	364100        	entry	a1, 32
4005a983:	81f4ff        	l32r	a8, 0x4005a954	; ( 0x40090000 )
4005a986:	c1f5ff        	l32r	a12, 0x4005a95c	; ( 0x4005acf0 )
4005a989:	b1f5ff        	l32r	a11, 0x4005a960	; ( 0xbff70000 )
4005a98c:	a1f6ff        	l32r	a10, 0x4005a964	; ( 0xa5a5a5a5 )
4005a98f:	21f6ff        	l32r	a2, 0x4005a968	; ( 0x400912f0 )
4005a992:	c09880        	add	a9, a8, a12
4005a995:	b09980        	add	a9, a9, a11
4005a998:	922900        	l32i	a9, a9, 0
4005a99b:	a09930        	xor	a9, a9, a10
4005a99e:	9908      	s32i.n	a9, a8, 0
4005a9a0:	4b88      	addi.n	a8, a8, 4
4005a9a2:	2798ec        	bne	a8, a2, 0x4005a992
4005a9a5:	21ecff        	l32r	a2, 0x4005a958	; ( 0x3ffd2000 )
4005a9a8:	c1f1ff        	l32r	a12, 0x4005a96c	; ( 0x0000e000 )
4005a9ab:	ad02      	mov.n	a10, a2
4005a9ad:	0c0b      	movi.n	a11, 0
4005a9af:	e5a9b1        	call8	0x4000c44c
4005a9b2:	ad02      	mov.n	a10, a2
4005a9b4:	c1efff        	l32r	a12, 0x4005a970	; ( 0x4005a9e4 )
4005a9b7:	b1efff        	l32r	a11, 0x4005a974	; ( 0xc002e000 )
4005a9ba:	91eaff        	l32r	a9, 0x4005a964	; ( 0xa5a5a5a5 )
4005a9bd:	21eeff        	l32r	a2, 0x4005a978	; ( 0x3ffd230c )
4005a9c0:	c08a80        	add	a8, a10, a12
4005a9c3:	b08880        	add	a8, a8, a11
4005a9c6:	822800        	l32i	a8, a8, 0
4005a9c9:	908830        	xor	a8, a8, a9
4005a9cc:	890a      	s32i.n	a8, a10, 0
4005a9ce:	4baa      	addi.n	a10, a10, 4
4005a9d0:	279aec        	bne	a10, a2, 0x4005a9c0
4005a9d3:	a1eaff        	l32r	a10, 0x4005a97c	; ( 0x3ff9eeef )
4005a9d6:	e537ad        	call8	0x40007d54
4005a9d9:	21deff        	l32r	a2, 0x4005a954	; ( 0x40090000 )
4005a9dc:	2802      	l32i.n	a2, a2, 0
4005a9de:	e00200        	callx8	a2
4005a9e1:	1df0      	retw.n
4005a9e3 to 4005c073  --------- Unknown territory !!!
4005c074:	3ff0001c	; l32r
4005c078:	3ff00020	; l32r
4005c07c to 4005ca2b  --------- Unknown territory !!!
4005ca2c:	3ff041d4	; l32r
4005ca30:	3ff041c0	; l32r
4005ca34:	364100        	entry	a1, 32
4005ca37:	818ffd        	l32r	a8, 0x4005c074	; ( 0x3ff0001c )
4005ca3a:	0c89      	movi.n	a9, 8
4005ca3c:	c02000        	memw
4005ca3f:	a808      	l32i.n	a10, a8, 0
4005ca41:	909a20        	or	a9, a10, a9
4005ca44:	c02000        	memw
4005ca47:	9908      	s32i.n	a9, a8, 0
4005ca49:	818bfd        	l32r	a8, 0x4005c078	; ( 0x3ff00020 )
4005ca4c:	7c79      	movi.n	a9, -9
4005ca4e:	c02000        	memw
4005ca51:	a22800        	l32i	a10, a8, 0
4005ca54:	909a10        	and	a9, a10, a9
4005ca57:	c02000        	memw
4005ca5a:	926800        	s32i	a9, a8, 0
4005ca5d:	81f3ff        	l32r	a8, 0x4005ca2c	; ( 0x3ff041d4 )
4005ca60:	c02000        	memw
4005ca63:	a808      	l32i.n	a10, a8, 0
4005ca65:	9d08      	mov.n	a9, a8
4005ca67:	261af5        	beqi	a10, 1, 0x4005ca60
4005ca6a:	81f1ff        	l32r	a8, 0x4005ca30	; ( 0x3ff041c0 )
4005ca6d:	0c1a      	movi.n	a10, 1
4005ca6f:	c02000        	memw
4005ca72:	a908      	s32i.n	a10, a8, 0
4005ca74:	c02000        	memw
4005ca77:	8809      	l32i.n	a8, a9, 0
4005ca79:	2618f7        	beqi	a8, 1, 0x4005ca74
4005ca7c:	1df0      	retw.n
4005ca7e to 4005ca7f  --------- Unknown territory !!!
4005ca80:	3ff041d0	; l32r
4005ca84:	364100        	entry	a1, 32
4005ca87:	81feff        	l32r	a8, 0x4005ca80	; ( 0x3ff041d0 )
4005ca8a:	0c19      	movi.n	a9, 1
4005ca8c:	c02000        	memw
4005ca8f:	9908      	s32i.n	a9, a8, 0
4005ca91:	91e6ff        	l32r	a9, 0x4005ca2c	; ( 0x3ff041d4 )
4005ca94:	c02000        	memw
4005ca97:	8809      	l32i.n	a8, a9, 0
4005ca99:	2618f7        	beqi	a8, 1, 0x4005ca94
4005ca9c:	8177fd        	l32r	a8, 0x4005c078	; ( 0x3ff00020 )
4005ca9f:	0c89      	movi.n	a9, 8
4005caa1:	c02000        	memw
4005caa4:	a808      	l32i.n	a10, a8, 0
4005caa6:	909a20        	or	a9, a10, a9
4005caa9:	c02000        	memw
4005caac:	9908      	s32i.n	a9, a8, 0
4005caae:	8171fd        	l32r	a8, 0x4005c074	; ( 0x3ff0001c )
4005cab1:	7c79      	movi.n	a9, -9
4005cab3:	c02000        	memw
4005cab6:	a808      	l32i.n	a10, a8, 0
4005cab8:	909a10        	and	a9, a10, a9
4005cabb:	c02000        	memw
4005cabe:	9908      	s32i.n	a9, a8, 0
4005cac0:	1df0      	retw.n
4005cac2 to 4005cac3  --------- Unknown territory !!!
4005cac4:	3ff04080	; l32r
4005cac8:	3ff041c4	; l32r
4005cacc:	c00fbf80	; l32r
4005cad0:	3ff04100	; l32r
4005cad4:	364100        	entry	a1, 32
4005cad7:	81fbff        	l32r	a8, 0x4005cac4	; ( 0x3ff04080 )
4005cada:	b1fcff        	l32r	a11, 0x4005cacc	; ( 0xc00fbf80 )
4005cadd:	91fcff        	l32r	a9, 0x4005cad0	; ( 0x3ff04100 )
4005cae0:	cce2      	bnez.n	a2, 0x4005caf2
4005cae2:	21f9ff        	l32r	a2, 0x4005cac8	; ( 0x3ff041c4 )
4005cae5:	0c18      	movi.n	a8, 1
4005cae7:	c02000        	memw
4005caea:	8902      	s32i.n	a8, a2, 0
4005caec:	81d0ff        	l32r	a8, 0x4005ca2c	; ( 0x3ff041d4 )
4005caef:	860400        	j	0x4005cb05
4005caf2:	8aa2      	add.n	a10, a2, a8
4005caf4:	baaa      	add.n	a10, a10, a11
4005caf6:	a80a      	l32i.n	a10, a10, 0
4005caf8:	c02000        	memw
4005cafb:	a908      	s32i.n	a10, a8, 0
4005cafd:	4b88      	addi.n	a8, a8, 4
4005caff:	9798ef        	bne	a8, a9, 0x4005caf2
4005cb02:	06f7ff        	j	0x4005cae2
4005cb05:	c02000        	memw
4005cb08:	2808      	l32i.n	a2, a8, 0
4005cb0a:	2612f7        	beqi	a2, 1, 0x4005cb05
4005cb0d:	1df0      	retw.n
4005cb0f to 4005cb0f  --------- Unknown territory !!!
4005cb10:	3ff041c8	; l32r
4005cb14:	364100        	entry	a1, 32
4005cb17:	81feff        	l32r	a8, 0x4005cb10	; ( 0x3ff041c8 )
4005cb1a:	0c19      	movi.n	a9, 1
4005cb1c:	c02000        	memw
4005cb1f:	9908      	s32i.n	a9, a8, 0
4005cb21:	91c2ff        	l32r	a9, 0x4005ca2c	; ( 0x3ff041d4 )
4005cb24:	c02000        	memw
4005cb27:	8809      	l32i.n	a8, a9, 0
4005cb29:	2618f7        	beqi	a8, 1, 0x4005cb24
4005cb2c:	1df0      	retw.n
4005cb2e to 4005cb2f  --------- Unknown territory !!!
4005cb30:	3ff04140	; l32r
4005cb34:	c00fbec0	; l32r
4005cb38:	3ff04180	; l32r
4005cb3c:	3ff041cc	; l32r
4005cb40:	364100        	entry	a1, 32
4005cb43:	81fbff        	l32r	a8, 0x4005cb30	; ( 0x3ff04140 )
4005cb46:	b1fbff        	l32r	a11, 0x4005cb34	; ( 0xc00fbec0 )
4005cb49:	91fbff        	l32r	a9, 0x4005cb38	; ( 0x3ff04180 )
4005cb4c:	8aa2      	add.n	a10, a2, a8
4005cb4e:	baaa      	add.n	a10, a10, a11
4005cb50:	a80a      	l32i.n	a10, a10, 0
4005cb52:	c02000        	memw
4005cb55:	a908      	s32i.n	a10, a8, 0
4005cb57:	4b88      	addi.n	a8, a8, 4
4005cb59:	9798ef        	bne	a8, a9, 0x4005cb4c
4005cb5c:	21f8ff        	l32r	a2, 0x4005cb3c	; ( 0x3ff041cc )
4005cb5f:	0c18      	movi.n	a8, 1
4005cb61:	c02000        	memw
4005cb64:	8902      	s32i.n	a8, a2, 0
4005cb66:	81b1ff        	l32r	a8, 0x4005ca2c	; ( 0x3ff041d4 )
4005cb69:	c02000        	memw
4005cb6c:	2808      	l32i.n	a2, a8, 0
4005cb6e:	2612f7        	beqi	a2, 1, 0x4005cb69
4005cb71:	21f1ff        	l32r	a2, 0x4005cb38	; ( 0x3ff04180 )
4005cb74:	c02000        	memw
4005cb77:	2802      	l32i.n	a2, a2, 0
4005cb79:	1df0      	retw.n
4005cb7b to 4005cbc7  --------- Unknown territory !!!
4005cbc8:	3ff5a018	; l32r
4005cbcc:	364100        	entry	a1, 32
4005cbcf:	208074        	extui	a8, a2, 0, 8
4005cbd2:	ccf8      	bnez.n	a8, 0x4005cbe5
4005cbd4:	21fdff        	l32r	a2, 0x4005cbc8	; ( 0x3ff5a018 )
4005cbd7:	c02000        	memw
4005cbda:	8802      	l32i.n	a8, a2, 0
4005cbdc:	1c02      	movi.n	a2, 16
4005cbde:	202810        	and	a2, a8, a2
4005cbe1:	dc02      	bnez.n	a2, 0x4005cbf5
4005cbe3:	1df0      	retw.n
4005cbe5:	0c02      	movi.n	a2, 0
4005cbe7:	661815        	bnei	a8, 1, 0x4005cc00
4005cbea:	81f7ff        	l32r	a8, 0x4005cbc8	; ( 0x3ff5a018 )
4005cbed:	c02000        	memw
4005cbf0:	8808      	l32i.n	a8, a8, 0
4005cbf2:	57680a        	bbci	a8, 5, 0x4005cc00
4005cbf5:	e5e3ff        	call8	0x4005ca34
4005cbf8:	30a320        	or	a10, a3, a3
4005cbfb:	a5edff        	call8	0x4005cad4
4005cbfe:	0c12      	movi.n	a2, 1
4005cc00:	1df0      	retw.n
4005cc02 to 4005cc03  --------- Unknown territory !!!
4005cc04:	364100        	entry	a1, 32
4005cc07:	e5f0ff        	call8	0x4005cb14
4005cc0a:	20a220        	or	a10, a2, a2
4005cc0d:	25f3ff        	call8	0x4005cb40
4005cc10:	2d0a      	mov.n	a2, a10
4005cc12:	25e7ff        	call8	0x4005ca84
4005cc15:	1df0      	retw.n
4005cc17 to 4005ef03  --------- Unknown territory !!!
4005ef04:	ffff0000	; l32r
4005ef08 to 40061b5b  --------- Unknown territory !!!
40061b5c:	01002000	; l32r
40061b60:	3ff4301c	; l32r
40061b64:	70000000	; l32r
40061b68:	3ff43020	; l32r
40061b6c:	7c000000	; l32r
40061b70:	3ffae290	; l32r
40061b74:	3ff43024	; l32r
40061b78:	5c000000	; l32r
40061b7c:	dfffffff	; l32r
40061b80:	20000000	; l32r
40061b84:	50000000	; l32r
40061b88:	364100        	entry	a1, 32
40061b8b:	b1f4ff        	l32r	a11, 0x40061b5c	; ( 0x01002000 )
40061b8e:	81f4ff        	l32r	a8, 0x40061b60	; ( 0x3ff4301c )
40061b91:	b0c210        	and	a12, a2, a11
40061b94:	a1e168        	l32r	a10, 0x4003bf18	; ( 0xf7ffffff )
40061b97:	91f6ff        	l32r	a9, 0x40061b70	; ( 0x3ffae290 )
40061b9a:	b79c66        	bne	a12, a11, 0x40061c04
40061b9d:	c02000        	memw
40061ba0:	2808      	l32i.n	a2, a8, 0
40061ba2:	a0a210        	and	a10, a2, a10
40061ba5:	c02000        	memw
40061ba8:	a908      	s32i.n	a10, a8, 0
40061baa:	c02000        	memw
40061bad:	a808      	l32i.n	a10, a8, 0
40061baf:	21edff        	l32r	a2, 0x40061b64	; ( 0x70000000 )
40061bb2:	202a20        	or	a2, a10, a2
40061bb5:	c02000        	memw
40061bb8:	2908      	s32i.n	a2, a8, 0
40061bba:	21ebff        	l32r	a2, 0x40061b68	; ( 0x3ff43020 )
40061bbd:	81b237        	l32r	a8, 0x4002fa88	; ( 0x03ffffff )
40061bc0:	c02000        	memw
40061bc3:	a802      	l32i.n	a10, a2, 0
40061bc5:	808a10        	and	a8, a10, a8
40061bc8:	a1e9ff        	l32r	a10, 0x40061b6c	; ( 0x7c000000 )
40061bcb:	a08820        	or	a8, a8, a10
40061bce:	c02000        	memw
40061bd1:	8902      	s32i.n	a8, a2, 0
40061bd3:	920900        	l8ui	a9, a9, 0
40061bd6:	c02000        	memw
40061bd9:	a802      	l32i.n	a10, a2, 0
40061bdb:	3b99      	addi.n	a9, a9, 3
40061bdd:	82af00        	movi	a8, 0xffffff00
40061be0:	909074        	extui	a9, a9, 0, 8
40061be3:	808a10        	and	a8, a10, a8
40061be6:	808920        	or	a8, a9, a8
40061be9:	c02000        	memw
40061bec:	8902      	s32i.n	a8, a2, 0
40061bee:	21e1ff        	l32r	a2, 0x40061b74	; ( 0x3ff43024 )
40061bf1:	81c4f4        	l32r	a8, 0x4005ef04	; ( 0xffff0000 )
40061bf4:	c02000        	memw
40061bf7:	9802      	l32i.n	a9, a2, 0
40061bf9:	808910        	and	a8, a9, a8
40061bfc:	92a0eb        	movi	a9, 235
40061bff:	865f00        	j	0x40061d81
40061c02 to 40061c03  --------- Unknown territory !!!
40061c04:	d7e202        	bbsi	a2, 13, 0x40061c0a
40061c07:	463b00        	j	0x40061cf8
40061c0a:	c02000        	memw
40061c0d:	b808      	l32i.n	a11, a8, 0
40061c0f:	a0ab10        	and	a10, a11, a10
40061c12:	c02000        	memw
40061c15:	a908      	s32i.n	a10, a8, 0
40061c17:	c02000        	memw
40061c1a:	b808      	l32i.n	a11, a8, 0
40061c1c:	a1d2ff        	l32r	a10, 0x40061b64	; ( 0x70000000 )
40061c1f:	a0ab20        	or	a10, a11, a10
40061c22:	c02000        	memw
40061c25:	a908      	s32i.n	a10, a8, 0
40061c27:	81d0ff        	l32r	a8, 0x40061b68	; ( 0x3ff43020 )
40061c2a:	a19737        	l32r	a10, 0x4002fa88	; ( 0x03ffffff )
40061c2d:	c02000        	memw
40061c30:	b808      	l32i.n	a11, a8, 0
40061c32:	a0ab10        	and	a10, a11, a10
40061c35:	b1d0ff        	l32r	a11, 0x40061b78	; ( 0x5c000000 )
40061c38:	b0aa20        	or	a10, a10, a11
40061c3b:	c02000        	memw
40061c3e:	a908      	s32i.n	a10, a8, 0
40061c40:	477235        	bbci	a2, 20, 0x40061c79
40061c43:	21ccff        	l32r	a2, 0x40061b74	; ( 0x3ff43024 )
40061c46:	a1aff4        	l32r	a10, 0x4005ef04	; ( 0xffff0000 )
40061c49:	c02000        	memw
40061c4c:	b802      	l32i.n	a11, a2, 0
40061c4e:	a0ab10        	and	a10, a11, a10
40061c51:	b2a06b        	movi	a11, 107
40061c54:	b0aa20        	or	a10, a10, a11
40061c57:	c02000        	memw
40061c5a:	a902      	s32i.n	a10, a2, 0
40061c5c:	920900        	l8ui	a9, a9, 0
40061c5f:	c02000        	memw
40061c62:	a808      	l32i.n	a10, a8, 0
40061c64:	7b99      	addi.n	a9, a9, 7
40061c66:	22af00        	movi	a2, 0xffffff00
40061c69:	909074        	extui	a9, a9, 0, 8
40061c6c:	202a10        	and	a2, a10, a2
40061c6f:	202920        	or	a2, a9, a2
40061c72:	c02000        	memw
40061c75:	2908      	s32i.n	a2, a8, 0
40061c77:	1df0      	retw.n
40061c79:	c02000        	memw
40061c7c:	a808      	l32i.n	a10, a8, 0
40061c7e:	920900        	l8ui	a9, a9, 0
40061c81:	777227        	bbci	a2, 23, 0x40061cac
40061c84:	3b99      	addi.n	a9, a9, 3
40061c86:	22af00        	movi	a2, 0xffffff00
40061c89:	909074        	extui	a9, a9, 0, 8
40061c8c:	202a10        	and	a2, a10, a2
40061c8f:	202920        	or	a2, a9, a2
40061c92:	c02000        	memw
40061c95:	2908      	s32i.n	a2, a8, 0
40061c97:	21b7ff        	l32r	a2, 0x40061b74	; ( 0x3ff43024 )
40061c9a:	819af4        	l32r	a8, 0x4005ef04	; ( 0xffff0000 )
40061c9d:	c02000        	memw
40061ca0:	9802      	l32i.n	a9, a2, 0
40061ca2:	808910        	and	a8, a9, a8
40061ca5:	92a0bb        	movi	a9, 187
40061ca8:	463500        	j	0x40061d81
40061cab to 40061cab  --------- Unknown territory !!!
40061cac:	7b99      	addi.n	a9, a9, 7
40061cae:	909074        	extui	a9, a9, 0, 8
40061cb1:	e76220        	bbci	a2, 14, 0x40061cd5
40061cb4:	22af00        	movi	a2, 0xffffff00
40061cb7:	202a10        	and	a2, a10, a2
40061cba:	202920        	or	a2, a9, a2
40061cbd:	c02000        	memw
40061cc0:	2908      	s32i.n	a2, a8, 0
40061cc2:	21acff        	l32r	a2, 0x40061b74	; ( 0x3ff43024 )
40061cc5:	818ff4        	l32r	a8, 0x4005ef04	; ( 0xffff0000 )
40061cc8:	c02000        	memw
40061ccb:	9802      	l32i.n	a9, a2, 0
40061ccd:	808910        	and	a8, a9, a8
40061cd0:	3cb9      	movi.n	a9, 59
40061cd2:	c62a00        	j	0x40061d81
40061cd5:	22af00        	movi	a2, 0xffffff00
40061cd8:	202a10        	and	a2, a10, a2
40061cdb:	202920        	or	a2, a9, a2
40061cde:	c02000        	memw
40061ce1:	2908      	s32i.n	a2, a8, 0
40061ce3:	21a4ff        	l32r	a2, 0x40061b74	; ( 0x3ff43024 )
40061ce6:	8187f4        	l32r	a8, 0x4005ef04	; ( 0xffff0000 )
40061ce9:	c02000        	memw
40061cec:	9802      	l32i.n	a9, a2, 0
40061cee:	808910        	and	a8, a9, a8
40061cf1:	0cb9      	movi.n	a9, 11
40061cf3:	862200        	j	0x40061d81
40061cf6 to 40061cf7  --------- Unknown territory !!!
40061cf8:	c02000        	memw
40061cfb:	2808      	l32i.n	a2, a8, 0
40061cfd:	a0a210        	and	a10, a2, a10
40061d00:	c02000        	memw
40061d03:	a908      	s32i.n	a10, a8, 0
40061d05:	920900        	l8ui	a9, a9, 0
40061d08:	dc19      	bnez.n	a9, 0x40061d1d
40061d0a:	c02000        	memw
40061d0d:	9808      	l32i.n	a9, a8, 0
40061d0f:	219bff        	l32r	a2, 0x40061b7c	; ( 0xdfffffff )
40061d12:	202910        	and	a2, a9, a2
40061d15:	c02000        	memw
40061d18:	2908      	s32i.n	a2, a8, 0
40061d1a:	c60900        	j	0x40061d45
40061d1d:	c02000        	memw
40061d20:	a808      	l32i.n	a10, a8, 0
40061d22:	2197ff        	l32r	a2, 0x40061b80	; ( 0x20000000 )
40061d25:	0b99      	addi.n	a9, a9, -1
40061d27:	202a20        	or	a2, a10, a2
40061d2a:	c02000        	memw
40061d2d:	2908      	s32i.n	a2, a8, 0
40061d2f:	218eff        	l32r	a2, 0x40061b68	; ( 0x3ff43020 )
40061d32:	82af00        	movi	a8, 0xffffff00
40061d35:	c02000        	memw
40061d38:	a802      	l32i.n	a10, a2, 0
40061d3a:	808a10        	and	a8, a10, a8
40061d3d:	809920        	or	a9, a9, a8
40061d40:	c02000        	memw
40061d43:	9902      	s32i.n	a9, a2, 0
40061d45:	2186ff        	l32r	a2, 0x40061b60	; ( 0x3ff4301c )
40061d48:	818fff        	l32r	a8, 0x40061b84	; ( 0x50000000 )
40061d4b:	c02000        	memw
40061d4e:	9802      	l32i.n	a9, a2, 0
40061d50:	808920        	or	a8, a9, a8
40061d53:	c02000        	memw
40061d56:	8902      	s32i.n	a8, a2, 0
40061d58:	2184ff        	l32r	a2, 0x40061b68	; ( 0x3ff43020 )
40061d5b:	814b37        	l32r	a8, 0x4002fa88	; ( 0x03ffffff )
40061d5e:	c02000        	memw
40061d61:	9802      	l32i.n	a9, a2, 0
40061d63:	808910        	and	a8, a9, a8
40061d66:	9184ff        	l32r	a9, 0x40061b78	; ( 0x5c000000 )
40061d69:	908820        	or	a8, a8, a9
40061d6c:	c02000        	memw
40061d6f:	8902      	s32i.n	a8, a2, 0
40061d71:	2180ff        	l32r	a2, 0x40061b74	; ( 0x3ff43024 )
40061d74:	8164f4        	l32r	a8, 0x4005ef04	; ( 0xffff0000 )
40061d77:	c02000        	memw
40061d7a:	9802      	l32i.n	a9, a2, 0
40061d7c:	808910        	and	a8, a9, a8
40061d7f:	0c39      	movi.n	a9, 3
40061d81:	908820        	or	a8, a8, a9
40061d84:	c02000        	memw
40061d87:	8902      	s32i.n	a8, a2, 0
40061d89:	1df0      	retw.n
40061d8b to 40061d8b  --------- Unknown territory !!!
40061d8c:	3ffae293	; l32r
40061d90:	364100        	entry	a1, 32
40061d93:	81feff        	l32r	a8, 0x40061d8c	; ( 0x3ffae293 )
40061d96:	202074        	extui	a2, a2, 0, 8
40061d99:	920800        	l8ui	a9, a8, 0
40061d9c:	8175ff        	l32r	a8, 0x40061b70	; ( 0x3ffae290 )
40061d9f:	303074        	extui	a3, a3, 0, 8
40061da2:	2a28      	add.n	a2, a8, a2
40061da4:	9c89      	beqz.n	a9, 0x40061dc0
40061da6:	661306        	bnei	a3, 1, 0x40061db0
40061da9:	0c23      	movi.n	a3, 2
40061dab:	c60200        	j	0x40061dba
40061dae to 40061daf  --------- Unknown territory !!!
40061db0:	662304        	bnei	a3, 2, 0x40061db8
40061db3:	0c13      	movi.n	a3, 1
40061db5:	460000        	j	0x40061dba
40061db8:	0c03      	movi.n	a3, 0
40061dba:	324200        	s8i	a3, a2, 0
40061dbd:	1df0      	retw.n
40061dbf to 40061dbf  --------- Unknown territory !!!
40061dc0:	924200        	s8i	a9, a2, 0
40061dc3:	1df0      	retw.n
40061dc5 to 40061dc7  --------- Unknown territory !!!
40061dc8:	3ff49054	; l32r
40061dcc:	ffff8fff	; l32r
40061dd0:	3ff49058	; l32r
40061dd4:	3ff49040	; l32r
40061dd8:	3ff49048	; l32r
40061ddc:	364100        	entry	a1, 32
40061ddf:	202074        	extui	a2, a2, 0, 8
40061de2:	dce3      	bnez.n	a3, 0x40061e04
40061de4:	21f9ff        	l32r	a2, 0x40061dc8	; ( 0x3ff49054 )
40061de7:	81f9ff        	l32r	a8, 0x40061dcc	; ( 0xffff8fff )
40061dea:	c02000        	memw
40061ded:	9802      	l32i.n	a9, a2, 0
40061def:	31f935        	l32r	a3, 0x4002f5d4	; ( 0x00001000 )
40061df2:	809910        	and	a9, a9, a8
40061df5:	309920        	or	a9, a9, a3
40061df8:	c02000        	memw
40061dfb:	9902      	s32i.n	a9, a2, 0
40061dfd:	21f4ff        	l32r	a2, 0x40061dd0	; ( 0x3ff49058 )
40061e00:	c60700        	j	0x40061e23
40061e03 to 40061e03  --------- Unknown territory !!!
40061e04:	66132e        	bnei	a3, 1, 0x40061e36
40061e07:	21f3ff        	l32r	a2, 0x40061dd4	; ( 0x3ff49040 )
40061e0a:	81f0ff        	l32r	a8, 0x40061dcc	; ( 0xffff8fff )
40061e0d:	c02000        	memw
40061e10:	9802      	l32i.n	a9, a2, 0
40061e12:	31f035        	l32r	a3, 0x4002f5d4	; ( 0x00001000 )
40061e15:	809910        	and	a9, a9, a8
40061e18:	309920        	or	a9, a9, a3
40061e1b:	c02000        	memw
40061e1e:	9902      	s32i.n	a9, a2, 0
40061e20:	21eeff        	l32r	a2, 0x40061dd8	; ( 0x3ff49048 )
40061e23:	c02000        	memw
40061e26:	9802      	l32i.n	a9, a2, 0
40061e28:	808910        	and	a8, a9, a8
40061e2b:	303820        	or	a3, a8, a3
40061e2e:	c02000        	memw
40061e31:	3902      	s32i.n	a3, a2, 0
40061e33:	1df0      	retw.n
40061e35 to 40061e35  --------- Unknown territory !!!
40061e36:	20a220        	or	a10, a2, a2
40061e39:	a564a8        	call8	0x4000a484
40061e3c:	ad02      	mov.n	a10, a2
40061e3e:	e53ea8        	call8	0x4000a22c
40061e41:	ad02      	mov.n	a10, a2
40061e43:	0c4b      	movi.n	a11, 4
40061e45:	0c0c      	movi.n	a12, 0
40061e47:	6509a8        	call8	0x40009edc
40061e4a:	0c0c      	movi.n	a12, 0
40061e4c:	dd0c      	mov.n	a13, a12
40061e4e:	0c4b      	movi.n	a11, 4
40061e50:	20a220        	or	a10, a2, a2
40061e53:	a50ba8        	call8	0x40009f0c
40061e56:	ad02      	mov.n	a10, a2
40061e58:	2518a8        	call8	0x40009fdc
40061e5b:	303855        	extui	a3, a3, 24, 6
40061e5e:	ad03      	mov.n	a10, a3
40061e60:	0c3b      	movi.n	a11, 3
40061e62:	0c0c      	movi.n	a12, 0
40061e64:	6507a8        	call8	0x40009edc
40061e67:	0c0c      	movi.n	a12, 0
40061e69:	ad03      	mov.n	a10, a3
40061e6b:	0c3b      	movi.n	a11, 3
40061e6d:	dd0c      	mov.n	a13, a12
40061e6f:	e509a8        	call8	0x40009f0c
40061e72:	1df0      	retw.n
40061e74:	3ff9ee69	; l32r
40061e78:	36a100        	entry	a1, 80
40061e7b:	520401        	l8ui	a5, a4, 1
40061e7e:	202074        	extui	a2, a2, 0, 8
40061e81:	226106        	s32i	a2, a1, 24
40061e84:	502441        	srli	a2, a5, 4
40061e87:	620400        	l8ui	a6, a4, 0
40061e8a:	226104        	s32i	a2, a1, 16
40061e8d:	220402        	l8ui	a2, a4, 2
40061e90:	608441        	srli	a8, a6, 4
40061e93:	204441        	srli	a4, a2, 4
40061e96:	a1f7ff        	l32r	a10, 0x40061e74	; ( 0x3ff9ee69 )
40061e99:	e22104        	l32i	a14, a1, 16
40061e9c:	cd08      	mov.n	a12, a8
40061e9e:	4901      	s32i.n	a4, a1, 0
40061ea0:	60b034        	extui	a11, a6, 0, 4
40061ea3:	50d034        	extui	a13, a5, 0, 4
40061ea6:	20f034        	extui	a15, a2, 0, 4
40061ea9:	8981      	s32i.n	a8, a1, 32
40061eab:	4951      	s32i.n	a4, a1, 20
40061ead:	65eaa5        	call8	0x40007d54
40061eb0:	8881      	l32i.n	a8, a1, 32
40061eb2:	9c63      	beqz.n	a3, 0x40061ecc
40061eb4:	261324        	beqi	a3, 1, 0x40061edc
40061eb7:	30a054        	extui	a10, a3, 0, 6
40061eba:	30c654        	extui	a12, a3, 6, 6
40061ebd:	309c54        	extui	a9, a3, 12, 6
40061ec0:	307255        	extui	a7, a3, 18, 6
40061ec3:	4861      	l32i.n	a4, a1, 24
40061ec5:	303855        	extui	a3, a3, 24, 6
40061ec8:	c60700        	j	0x40061eeb
40061ecb to 40061ecb  --------- Unknown territory !!!
40061ecc:	0ca4      	movi.n	a4, 10
40061ece:	0c93      	movi.n	a3, 9
40061ed0:	0cb7      	movi.n	a7, 11
40061ed2:	0c89      	movi.n	a9, 8
40061ed4:	0c7c      	movi.n	a12, 7
40061ed6:	0c6a      	movi.n	a10, 6
40061ed8:	c60300        	j	0x40061eeb
40061edb to 40061edb  --------- Unknown territory !!!
40061edc:	42a002        	movi	a4, 2
40061edf:	32a004        	movi	a3, 4
40061ee2:	72a00f        	movi	a7, 15
40061ee5:	0cd9      	movi.n	a9, 13
40061ee7:	0ccc      	movi.n	a12, 12
40061ee9:	0cea      	movi.n	a10, 14
40061eeb:	376611        	bbci	a6, 3, 0x40061f00
40061eee:	60b014        	extui	a11, a6, 0, 2
40061ef1:	8981      	s32i.n	a8, a1, 32
40061ef3:	9991      	s32i.n	a9, a1, 36
40061ef5:	c971      	s32i.n	a12, a1, 28
40061ef7:	6522a8        	call8	0x4000a11c
40061efa:	c871      	l32i.n	a12, a1, 28
40061efc:	9891      	l32i.n	a9, a1, 36
40061efe:	8881      	l32i.n	a8, a1, 32
40061f00:	62a008        	movi	a6, 8
40061f03:	67080d        	bnone	a8, a6, 0x40061f14
40061f06:	c0ac20        	or	a10, a12, a12
40061f09:	80b014        	extui	a11, a8, 0, 2
40061f0c:	926109        	s32i	a9, a1, 36
40061f0f:	e520a8        	call8	0x4000a11c
40061f12:	9891      	l32i.n	a9, a1, 36
40061f14:	37650a        	bbci	a5, 3, 0x40061f22
40061f17:	ad09      	mov.n	a10, a9
40061f19:	50b014        	extui	a11, a5, 0, 2
40061f1c:	101120        	or	a1, a1, a1
40061f1f:	e51fa8        	call8	0x4000a11c
40061f22:	622104        	l32i	a6, a1, 16
40061f25:	52a008        	movi	a5, 8
40061f28:	570608        	bnone	a6, a5, 0x40061f34
40061f2b:	70a720        	or	a10, a7, a7
40061f2e:	60b014        	extui	a11, a6, 0, 2
40061f31:	a51ea8        	call8	0x4000a11c
40061f34:	6861      	l32i.n	a6, a1, 24
40061f36:	52a0ee        	movi	a5, 238
40061f39:	57161f        	beq	a6, a5, 0x40061f5c
40061f3c:	37620a        	bbci	a2, 3, 0x40061f4a
40061f3f:	ad03      	mov.n	a10, a3
40061f41:	20b014        	extui	a11, a2, 0, 2
40061f44:	101120        	or	a1, a1, a1
40061f47:	651da8        	call8	0x4000a11c
40061f4a:	322105        	l32i	a3, a1, 20
40061f4d:	22a008        	movi	a2, 8
40061f50:	270308        	bnone	a3, a2, 0x40061f5c
40061f53:	40a420        	or	a10, a4, a4
40061f56:	30b014        	extui	a11, a3, 0, 2
40061f59:	251ca8        	call8	0x4000a11c
40061f5c:	1df0      	retw.n
40061f5e to 40061f5f  --------- Unknown territory !!!
40061f60:	3ff49060	; l32r
40061f64:	3ff49064	; l32r
40061f68:	3ff49068	; l32r
40061f6c:	3ff4905c	; l32r
40061f70:	3ff44f24	; l32r
40061f74:	3ff49030	; l32r
40061f78:	3ff49034	; l32r
40061f7c:	3ff49038	; l32r
40061f80:	3ff4903c	; l32r
40061f84:	364100        	entry	a1, 32
40061f87:	56520a        	bnez	a2, 0x40062030
40061f8a:	0c6a      	movi.n	a10, 6
40061f8c:	654fa8        	call8	0x4000a484
40061f8f:	0c6a      	movi.n	a10, 6
40061f91:	a529a8        	call8	0x4000a22c
40061f94:	0c1b      	movi.n	a11, 1
40061f96:	0c6a      	movi.n	a10, 6
40061f98:	2518a8        	call8	0x4000a11c
40061f9b:	81f1ff        	l32r	a8, 0x40061f60	; ( 0x3ff49060 )
40061f9e:	318bff        	l32r	a3, 0x40061dcc	; ( 0xffff8fff )
40061fa1:	c02000        	memw
40061fa4:	9808      	l32i.n	a9, a8, 0
40061fa6:	218b35        	l32r	a2, 0x4002f5d4	; ( 0x00001000 )
40061fa9:	309910        	and	a9, a9, a3
40061fac:	209920        	or	a9, a9, a2
40061faf:	c02000        	memw
40061fb2:	9908      	s32i.n	a9, a8, 0
40061fb4:	0c7a      	movi.n	a10, 7
40061fb6:	e54ca8        	call8	0x4000a484
40061fb9:	0c7a      	movi.n	a10, 7
40061fbb:	2527a8        	call8	0x4000a22c
40061fbe:	81e9ff        	l32r	a8, 0x40061f64	; ( 0x3ff49064 )
40061fc1:	0c8a      	movi.n	a10, 8
40061fc3:	c02000        	memw
40061fc6:	9808      	l32i.n	a9, a8, 0
40061fc8:	309910        	and	a9, a9, a3
40061fcb:	209920        	or	a9, a9, a2
40061fce:	c02000        	memw
40061fd1:	9908      	s32i.n	a9, a8, 0
40061fd3:	254ba8        	call8	0x4000a484
40061fd6:	0c8a      	movi.n	a10, 8
40061fd8:	2525a8        	call8	0x4000a22c
40061fdb:	81e3ff        	l32r	a8, 0x40061f68	; ( 0x3ff49068 )
40061fde:	0c9a      	movi.n	a10, 9
40061fe0:	c02000        	memw
40061fe3:	9808      	l32i.n	a9, a8, 0
40061fe5:	309910        	and	a9, a9, a3
40061fe8:	209920        	or	a9, a9, a2
40061feb:	c02000        	memw
40061fee:	9908      	s32i.n	a9, a8, 0
40061ff0:	2549a8        	call8	0x4000a484
40061ff3:	0c9a      	movi.n	a10, 9
40061ff5:	6523a8        	call8	0x4000a22c
40061ff8:	0caa      	movi.n	a10, 10
40061ffa:	a548a8        	call8	0x4000a484
40061ffd:	0caa      	movi.n	a10, 10
40061fff:	e522a8        	call8	0x4000a22c
40062002:	0cba      	movi.n	a10, 11
40062004:	e547a8        	call8	0x4000a484
40062007:	0cba      	movi.n	a10, 11
40062009:	2522a8        	call8	0x4000a22c
4006200c:	81d8ff        	l32r	a8, 0x40061f6c	; ( 0x3ff4905c )
4006200f:	c02000        	memw
40062012:	9808      	l32i.n	a9, a8, 0
40062014:	303910        	and	a3, a9, a3
40062017:	202320        	or	a2, a3, a2
4006201a:	c02000        	memw
4006201d:	2908      	s32i.n	a2, a8, 0
4006201f:	21d4ff        	l32r	a2, 0x40061f70	; ( 0x3ff44f24 )
40062022:	31dfcd        	l32r	a3, 0x400557a0	; ( 0x7fffffff )
40062025:	c02000        	memw
40062028:	8802      	l32i.n	a8, a2, 0
4006202a:	303810        	and	a3, a8, a3
4006202d:	462a00        	j	0x400620da
40062030:	261202        	beqi	a2, 1, 0x40062036
40062033:	862a00        	j	0x400620e1
40062036:	0cea      	movi.n	a10, 14
40062038:	a544a8        	call8	0x4000a484
4006203b:	0cea      	movi.n	a10, 14
4006203d:	e51ea8        	call8	0x4000a22c
40062040:	bd02      	mov.n	a11, a2
40062042:	0cea      	movi.n	a10, 14
40062044:	650da8        	call8	0x4000a11c
40062047:	81cbff        	l32r	a8, 0x40061f74	; ( 0x3ff49030 )
4006204a:	3160ff        	l32r	a3, 0x40061dcc	; ( 0xffff8fff )
4006204d:	c02000        	memw
40062050:	9808      	l32i.n	a9, a8, 0
40062052:	216035        	l32r	a2, 0x4002f5d4	; ( 0x00001000 )
40062055:	309910        	and	a9, a9, a3
40062058:	209920        	or	a9, a9, a2
4006205b:	c02000        	memw
4006205e:	9908      	s32i.n	a9, a8, 0
40062060:	0cca      	movi.n	a10, 12
40062062:	2542a8        	call8	0x4000a484
40062065:	0cca      	movi.n	a10, 12
40062067:	651ca8        	call8	0x4000a22c
4006206a:	81c3ff        	l32r	a8, 0x40061f78	; ( 0x3ff49034 )
4006206d:	0cda      	movi.n	a10, 13
4006206f:	c02000        	memw
40062072:	9808      	l32i.n	a9, a8, 0
40062074:	309910        	and	a9, a9, a3
40062077:	209920        	or	a9, a9, a2
4006207a:	c02000        	memw
4006207d:	9908      	s32i.n	a9, a8, 0
4006207f:	6540a8        	call8	0x4000a484
40062082:	0cda      	movi.n	a10, 13
40062084:	651aa8        	call8	0x4000a22c
40062087:	81bdff        	l32r	a8, 0x40061f7c	; ( 0x3ff49038 )
4006208a:	0cfa      	movi.n	a10, 15
4006208c:	c02000        	memw
4006208f:	9808      	l32i.n	a9, a8, 0
40062091:	309910        	and	a9, a9, a3
40062094:	209920        	or	a9, a9, a2
40062097:	c02000        	memw
4006209a:	926800        	s32i	a9, a8, 0
4006209d:	653ea8        	call8	0x4000a484
400620a0:	0cfa      	movi.n	a10, 15
400620a2:	a518a8        	call8	0x4000a22c
400620a5:	81b6ff        	l32r	a8, 0x40061f80	; ( 0x3ff4903c )
400620a8:	0c4a      	movi.n	a10, 4
400620aa:	c02000        	memw
400620ad:	9808      	l32i.n	a9, a8, 0
400620af:	303910        	and	a3, a9, a3
400620b2:	202320        	or	a2, a3, a2
400620b5:	c02000        	memw
400620b8:	2908      	s32i.n	a2, a8, 0
400620ba:	a53ca8        	call8	0x4000a484
400620bd:	0c4a      	movi.n	a10, 4
400620bf:	e516a8        	call8	0x4000a22c
400620c2:	0c2a      	movi.n	a10, 2
400620c4:	e53ba8        	call8	0x4000a484
400620c7:	0c2a      	movi.n	a10, 2
400620c9:	2516a8        	call8	0x4000a22c
400620cc:	21a9ff        	l32r	a2, 0x40061f70	; ( 0x3ff44f24 )
400620cf:	31f1b0        	l32r	a3, 0x4004e494	; ( 0x80000000 )
400620d2:	c02000        	memw
400620d5:	8802      	l32i.n	a8, a2, 0
400620d7:	303820        	or	a3, a8, a3
400620da:	c02000        	memw
400620dd:	3902      	s32i.n	a3, a2, 0
400620df:	1df0      	retw.n
400620e1:	312aff        	l32r	a3, 0x40061d8c	; ( 0x3ffae293 )
400620e4:	0c18      	movi.n	a8, 1
400620e6:	824300        	s8i	a8, a3, 0
400620e9:	203054        	extui	a3, a2, 0, 6
400620ec:	ad03      	mov.n	a10, a3
400620ee:	6539a8        	call8	0x4000a484
400620f1:	ad03      	mov.n	a10, a3
400620f3:	a513a8        	call8	0x4000a22c
400620f6:	ad03      	mov.n	a10, a3
400620f8:	0c1b      	movi.n	a11, 1
400620fa:	2502a8        	call8	0x4000a11c
400620fd:	0c0b      	movi.n	a11, 0
400620ff:	dd0b      	mov.n	a13, a11
40062101:	cd0b      	mov.n	a12, a11
40062103:	ad03      	mov.n	a10, a3
40062105:	65e0a7        	call8	0x40009f0c
40062108:	ad03      	mov.n	a10, a3
4006210a:	25eda7        	call8	0x40009fdc
4006210d:	203654        	extui	a3, a2, 6, 6
40062110:	ad03      	mov.n	a10, a3
40062112:	2537a8        	call8	0x4000a484
40062115:	ad03      	mov.n	a10, a3
40062117:	6511a8        	call8	0x4000a22c
4006211a:	ad03      	mov.n	a10, a3
4006211c:	0c1b      	movi.n	a11, 1
4006211e:	0c0c      	movi.n	a12, 0
40062120:	a5dba7        	call8	0x40009edc
40062123:	0c0c      	movi.n	a12, 0
40062125:	dd0c      	mov.n	a13, a12
40062127:	0c1b      	movi.n	a11, 1
40062129:	ad03      	mov.n	a10, a3
4006212b:	25dea7        	call8	0x40009f0c
4006212e:	ad03      	mov.n	a10, a3
40062130:	a5eaa7        	call8	0x40009fdc
40062133:	203c54        	extui	a3, a2, 12, 6
40062136:	ad03      	mov.n	a10, a3
40062138:	a534a8        	call8	0x4000a484
4006213b:	ad03      	mov.n	a10, a3
4006213d:	e50ea8        	call8	0x4000a22c
40062140:	ad03      	mov.n	a10, a3
40062142:	0c2b      	movi.n	a11, 2
40062144:	0c0c      	movi.n	a12, 0
40062146:	65d9a7        	call8	0x40009edc
40062149:	0c0c      	movi.n	a12, 0
4006214b:	dd0c      	mov.n	a13, a12
4006214d:	0c2b      	movi.n	a11, 2
4006214f:	30a320        	or	a10, a3, a3
40062152:	a5dba7        	call8	0x40009f0c
40062155:	ad03      	mov.n	a10, a3
40062157:	65e8a7        	call8	0x40009fdc
4006215a:	203255        	extui	a3, a2, 18, 6
4006215d:	ad03      	mov.n	a10, a3
4006215f:	6532a8        	call8	0x4000a484
40062162:	ad03      	mov.n	a10, a3
40062164:	650ca8        	call8	0x4000a22c
40062167:	0c0c      	movi.n	a12, 0
40062169:	0c5b      	movi.n	a11, 5
4006216b:	dd0c      	mov.n	a13, a12
4006216d:	ad03      	mov.n	a10, a3
4006216f:	e5d9a7        	call8	0x40009f0c
40062172:	ad03      	mov.n	a10, a3
40062174:	202855        	extui	a2, a2, 24, 6
40062177:	65e6a7        	call8	0x40009fdc
4006217a:	ad02      	mov.n	a10, a2
4006217c:	6530a8        	call8	0x4000a484
4006217f:	ad02      	mov.n	a10, a2
40062181:	a50aa8        	call8	0x4000a22c
40062184:	ad02      	mov.n	a10, a2
40062186:	65e5a7        	call8	0x40009fdc
40062189:	1df0      	retw.n
4006218b to 4006218b  --------- Unknown territory !!!
4006218c:	3ff42008	; l32r
40062190:	3ff4201c	; l32r
40062194:	3ff42020	; l32r
40062198:	3ff42024	; l32r
4006219c:	3ff4202c	; l32r
400621a0:	90000000	; l32r
400621a4:	b0000000	; l32r
400621a8:	3ff42080	; l32r
400621ac:	3ff42000	; l32r
400621b0:	364100        	entry	a1, 32
400621b3:	a1f6ff        	l32r	a10, 0x4006218c	; ( 0x3ff42008 )
400621b6:	81f6ff        	l32r	a8, 0x40062190	; ( 0x3ff4201c )
400621b9:	91f6ff        	l32r	a9, 0x40062194	; ( 0x3ff42020 )
400621bc:	b1f7ff        	l32r	a11, 0x40062198	; ( 0x3ff42024 )
400621bf:	0c0f      	movi.n	a15, 0
400621c1:	c02000        	memw
400621c4:	e80a      	l32i.n	a14, a10, 0
400621c6:	c02000        	memw
400621c9:	d808      	l32i.n	a13, a8, 0
400621cb:	c02000        	memw
400621ce:	c809      	l32i.n	a12, a9, 0
400621d0:	c02000        	memw
400621d3:	b80b      	l32i.n	a11, a11, 0
400621d5:	c02000        	memw
400621d8:	f90a      	s32i.n	a15, a10, 0
400621da:	a1f0ff        	l32r	a10, 0x4006219c	; ( 0x3ff4202c )
400621dd:	0c7f      	movi.n	a15, 7
400621df:	c02000        	memw
400621e2:	f90a      	s32i.n	a15, a10, 0
400621e4:	a163fe        	l32r	a10, 0x40061b70	; ( 0x3ffae290 )
400621e7:	303074        	extui	a3, a3, 0, 8
400621ea:	a20a01        	l8ui	a10, a10, 1
400621ed:	ccba      	bnez.n	a10, 0x400621fc
400621ef:	91ecff        	l32r	a9, 0x400621a0	; ( 0x90000000 )
400621f2:	c02000        	memw
400621f5:	9908      	s32i.n	a9, a8, 0
400621f7:	060400        	j	0x4006220b
400621fa to 400621fb  --------- Unknown territory !!!
400621fc:	f1eaff        	l32r	a15, 0x400621a4	; ( 0xb0000000 )
400621ff:	0baa      	addi.n	a10, a10, -1
40062201:	c02000        	memw
40062204:	f908      	s32i.n	a15, a8, 0
40062206:	c02000        	memw
40062209:	a909      	s32i.n	a10, a9, 0
4006220b:	8156fe        	l32r	a8, 0x40061b64	; ( 0x70000000 )
4006220e:	a135ac        	l32r	a10, 0x4004d2e4	; ( 0x00040000 )
40062211:	809320        	or	a9, a3, a8
40062214:	81e1ff        	l32r	a8, 0x40062198	; ( 0x3ff42024 )
40062217:	c02000        	memw
4006221a:	9908      	s32i.n	a9, a8, 0
4006221c:	91e3ff        	l32r	a9, 0x400621a8	; ( 0x3ff42080 )
4006221f:	0c08      	movi.n	a8, 0
40062221:	c02000        	memw
40062224:	8909      	s32i.n	a8, a9, 0
40062226:	81e1ff        	l32r	a8, 0x400621ac	; ( 0x3ff42000 )
40062229:	c02000        	memw
4006222c:	a908      	s32i.n	a10, a8, 0
4006222e:	ad08      	mov.n	a10, a8
40062230:	c02000        	memw
40062233:	880a      	l32i.n	a8, a10, 0
40062235:	5678ff        	bnez	a8, 0x40062230
40062238:	c02000        	memw
4006223b:	9809      	l32i.n	a9, a9, 0
4006223d:	909074        	extui	a9, a9, 0, 8
40062240:	9902      	s32i.n	a9, a2, 0
40062242:	21d2ff        	l32r	a2, 0x4006218c	; ( 0x3ff42008 )
40062245:	c02000        	memw
40062248:	e902      	s32i.n	a14, a2, 0
4006224a:	21d1ff        	l32r	a2, 0x40062190	; ( 0x3ff4201c )
4006224d:	c02000        	memw
40062250:	d902      	s32i.n	a13, a2, 0
40062252:	21d0ff        	l32r	a2, 0x40062194	; ( 0x3ff42020 )
40062255:	c02000        	memw
40062258:	c902      	s32i.n	a12, a2, 0
4006225a:	21cfff        	l32r	a2, 0x40062198	; ( 0x3ff42024 )
4006225d:	c02000        	memw
40062260:	b902      	s32i.n	a11, a2, 0
40062262:	2d08      	mov.n	a2, a8
40062264:	1df0      	retw.n
40062266 to 40062267  --------- Unknown territory !!!
40062268:	3ff42010	; l32r
4006226c:	364100        	entry	a1, 32
4006226f:	8140fe        	l32r	a8, 0x40061b70	; ( 0x3ffae290 )
40062272:	ad03      	mov.n	a10, a3
40062274:	b20801        	l8ui	a11, a8, 1
40062277:	fc3b      	bnez.n	a11, 0x400622ae
40062279:	cd0b      	mov.n	a12, a11
4006227b:	0c18      	movi.n	a8, 1
4006227d:	91faff        	l32r	a9, 0x40062268	; ( 0x3ff42010 )
40062280:	b1cbff        	l32r	a11, 0x400621ac	; ( 0x3ff42000 )
40062283:	d1f062        	l32r	a13, 0x4003ae44	; ( 0x08000000 )
40062286:	060700        	j	0x400622a6
40062289:	c02000        	memw
4006228c:	c909      	s32i.n	a12, a9, 0
4006228e:	c02000        	memw
40062291:	d26b00        	s32i	a13, a11, 0
40062294:	c02000        	memw
40062297:	880b      	l32i.n	a8, a11, 0
40062299:	5678ff        	bnez	a8, 0x40062294
4006229c:	c02000        	memw
4006229f:	e809      	l32i.n	a14, a9, 0
400622a1:	8802      	l32i.n	a8, a2, 0
400622a3:	808e10        	and	a8, a14, a8
400622a6:	07e8df        	bbsi	a8, 0, 0x40062289
400622a9:	890a      	s32i.n	a8, a10, 0
400622ab:	060100        	j	0x400622b3
400622ae:	0c5b      	movi.n	a11, 5
400622b0:	e5efff        	call8	0x400621b0
400622b3:	0c02      	movi.n	a2, 0
400622b5:	1df0      	retw.n
400622b7 to 400622b7  --------- Unknown territory !!!
400622b8:	3ff420f8	; l32r
400622bc:	3ff430f8	; l32r
400622c0:	366100        	entry	a1, 48
400622c3:	81fdff        	l32r	a8, 0x400622b8	; ( 0x3ff420f8 )
400622c6:	c02000        	memw
400622c9:	322800        	l32i	a3, a8, 0
400622cc:	303024        	extui	a3, a3, 0, 3
400622cf:	5633ff        	bnez	a3, 0x400622c6
400622d2:	81faff        	l32r	a8, 0x400622bc	; ( 0x3ff430f8 )
400622d5:	c02000        	memw
400622d8:	3808      	l32i.n	a3, a8, 0
400622da:	303024        	extui	a3, a3, 0, 3
400622dd:	5643ff        	bnez	a3, 0x400622d5
400622e0:	a2c214        	addi	a10, a2, 20
400622e3:	bd01      	mov.n	a11, a1
400622e5:	65f8ff        	call8	0x4006226c
400622e8:	0c12      	movi.n	a2, 1
400622ea:	a02383        	moveqz	a2, a3, a10
400622ed:	1df0      	retw.n
400622ef to 400622ef  --------- Unknown territory !!!
400622f0:	364100        	entry	a1, 32
400622f3:	ad02      	mov.n	a10, a2
400622f5:	a5fcff        	call8	0x400622c0
400622f8:	81dcff        	l32r	a8, 0x40062268	; ( 0x3ff42010 )
400622fb:	c02000        	memw
400622fe:	3908      	s32i.n	a3, a8, 0
40062300:	31abff        	l32r	a3, 0x400621ac	; ( 0x3ff42000 )
40062303:	8111bc        	l32r	a8, 0x40051348	; ( 0x04000000 )
40062306:	c02000        	memw
40062309:	8903      	s32i.n	a8, a3, 0
4006230b:	8d03      	mov.n	a8, a3
4006230d:	c02000        	memw
40062310:	3808      	l32i.n	a3, a8, 0
40062312:	5673ff        	bnez	a3, 0x4006230d
40062315:	ad02      	mov.n	a10, a2
40062317:	a5faff        	call8	0x400622c0
4006231a:	2d03      	mov.n	a2, a3
4006231c:	1df0      	retw.n
4006231e to 4006231f  --------- Unknown territory !!!
40062320:	366100        	entry	a1, 48
40062323:	0c03      	movi.n	a3, 0
40062325:	ad02      	mov.n	a10, a2
40062327:	326100        	s32i	a3, a1, 0
4006232a:	65f9ff        	call8	0x400622c0
4006232d:	819fff        	l32r	a8, 0x400621ac	; ( 0x3ff42000 )
40062330:	31f468        	l32r	a3, 0x4003c700	; ( 0x40000000 )
40062333:	c02000        	memw
40062336:	3908      	s32i.n	a3, a8, 0
40062338:	c02000        	memw
4006233b:	3808      	l32i.n	a3, a8, 0
4006233d:	5673ff        	bnez	a3, 0x40062338
40062340:	0c23      	movi.n	a3, 2
40062342:	c60100        	j	0x4006234d
40062345:	a2c214        	addi	a10, a2, 20
40062348:	bd01      	mov.n	a11, a1
4006234a:	25f2ff        	call8	0x4006226c
4006234d:	8801      	l32i.n	a8, a1, 0
4006234f:	8703f2        	bnone	a3, a8, 0x40062345
40062352:	0c02      	movi.n	a2, 0
40062354:	1df0      	retw.n
40062356 to 40062357  --------- Unknown territory !!!
40062358:	3ff42004	; l32r
4006235c:	c00bdf80	; l32r
40062360 to 40062363  --------- Unknown territory !!!
40062364:	0ffd0820	; l32r
40062368 to 40062443  --------- Unknown territory !!!
40062444:	3ffae270	; l32r
40062448:	364100        	entry	a1, 32
4006244b:	a1feff        	l32r	a10, 0x40062444	; ( 0x3ffae270 )
4006244e:	25e7ff        	call8	0x400622c0
40062451:	ad02      	mov.n	a10, a2
40062453:	3c5b      	movi.n	a11, 53
40062455:	a5d5ff        	call8	0x400621b0
40062458:	8802      	l32i.n	a8, a2, 0
4006245a:	808811        	slli	a8, a8, 8
4006245d:	8902      	s32i.n	a8, a2, 0
4006245f:	2d0a      	mov.n	a2, a10
40062461:	1df0      	retw.n
40062463 to 40062463  --------- Unknown territory !!!
40062464:	3ff42028	; l32r
40062468:	88000000	; l32r
4006246c:	366100        	entry	a1, 48
4006246f:	920200        	l8ui	a9, a2, 0
40062472:	4c06      	movi.n	a6, 64
40062474:	606910        	and	a6, a9, a6
40062477:	4d02      	mov.n	a4, a2
40062479:	903014        	extui	a3, a9, 0, 2
4006247c:	9c66      	beqz.n	a6, 0x40062496
4006247e:	905234        	extui	a5, a9, 2, 4
40062481:	8c75      	beqz.n	a5, 0x4006248c
40062483:	d05511        	slli	a5, a5, 3
40062486:	52c5ff        	addi	a5, a5, -1
40062489:	5050f4        	extui	a5, a5, 0, 16
4006248c:	0c12      	movi.n	a2, 1
4006248e:	263302        	beqi	a3, 3, 0x40062494
40062491:	068700        	j	0x400626b1
40062494:	1df0      	retw.n
40062496:	0c12      	movi.n	a2, 1
40062498:	16e321        	beqz	a3, 0x400626ba
4006249b:	663302        	bnei	a3, 3, 0x400624a1
4006249e:	068600        	j	0x400626ba
400624a1:	907214        	extui	a7, a9, 2, 2
400624a4:	908414        	extui	a8, a9, 4, 2
400624a7:	ad02      	mov.n	a10, a2
400624a9:	66231c        	bnei	a3, 2, 0x400624c9
400624ac:	82c8fe        	addi	a8, a8, -2
400624af:	5d06      	mov.n	a5, a6
400624b1:	805293        	movnez	a5, a2, a8
400624b4:	56551f        	bnez	a5, 0x400626ad
400624b7:	702683        	moveqz	a2, a6, a7
400624ba:	56f21e        	bnez	a2, 0x400626ad
400624bd:	5d06      	mov.n	a5, a6
400624bf:	8d03      	mov.n	a8, a3
400624c1:	7d06      	mov.n	a7, a6
400624c3:	060500        	j	0x400624db
400624c6 to 400624c8  --------- Unknown territory !!!
400624c9:	b62702        	bltui	a7, 2, 0x400624cf
400624cc:	867a00        	j	0x400626ba
400624cf:	1b37      	addi.n	a3, a7, 1
400624d1:	371802        	beq	a8, a3, 0x400624d7
400624d4:	867800        	j	0x400626ba
400624d7:	5d06      	mov.n	a5, a6
400624d9:	3d0a      	mov.n	a3, a10
400624db:	b2af80        	movi	a11, -128
400624de:	a1d9ff        	l32r	a10, 0x40062444	; ( 0x3ffae270 )
400624e1:	b0b910        	and	a11, a9, a11
400624e4:	0c0c      	movi.n	a12, 0
400624e6:	0c12      	movi.n	a2, 1
400624e8:	b02c93        	movnez	a2, a12, a11
400624eb:	b901      	s32i.n	a11, a1, 0
400624ed:	8921      	s32i.n	a8, a1, 8
400624ef:	c931      	s32i.n	a12, a1, 12
400624f1:	e5dcff        	call8	0x400622c0
400624f4:	9126ff        	l32r	a9, 0x4006218c	; ( 0x3ff42008 )
400624f7:	d128ff        	l32r	a13, 0x40062198	; ( 0x3ff42024 )
400624fa:	c02000        	memw
400624fd:	9809      	l32i.n	a9, a9, 0
400624ff:	a125ff        	l32r	a10, 0x40062194	; ( 0x3ff42020 )
40062502:	9911      	s32i.n	a9, a1, 4
40062504:	9123ff        	l32r	a9, 0x40062190	; ( 0x3ff4201c )
40062507:	c831      	l32i.n	a12, a1, 12
40062509:	c02000        	memw
4006250c:	e809      	l32i.n	a14, a9, 0
4006250e:	c02000        	memw
40062511:	b80a      	l32i.n	a11, a10, 0
40062513:	c02000        	memw
40062516:	f80d      	l32i.n	a15, a13, 0
40062518:	d11dff        	l32r	a13, 0x4006218c	; ( 0x3ff42008 )
4006251b:	2020f4        	extui	a2, a2, 0, 16
4006251e:	c02000        	memw
40062521:	c90d      	s32i.n	a12, a13, 0
40062523:	c21402        	l16ui	a12, a4, 4
40062526:	8821      	l32i.n	a8, a1, 8
40062528:	fc0c      	bnez.n	a12, 0x4006255c
4006252a:	31daaf        	l32r	a3, 0x4004e494	; ( 0x80000000 )
4006252d:	c02000        	memw
40062530:	3909      	s32i.n	a3, a9, 0
40062532:	420401        	l8ui	a4, a4, 1
40062535:	318bfd        	l32r	a3, 0x40061b64	; ( 0x70000000 )
40062538:	303420        	or	a3, a4, a3
4006253b:	4117ff        	l32r	a4, 0x40062198	; ( 0x3ff42024 )
4006253e:	c02000        	memw
40062541:	326400        	s32i	a3, a4, 0
40062544:	311aff        	l32r	a3, 0x400621ac	; ( 0x3ff42000 )
40062547:	4167ab        	l32r	a4, 0x4004d2e4	; ( 0x00040000 )
4006254a:	c02000        	memw
4006254d:	426300        	s32i	a4, a3, 0
40062550:	c02000        	memw
40062553:	4803      	l32i.n	a4, a3, 0
40062555:	5674ff        	bnez	a4, 0x40062550
40062558:	464b00        	j	0x40062689
4006255b to 4006255b  --------- Unknown territory !!!
4006255c:	c110ff        	l32r	a12, 0x4006219c	; ( 0x3ff4202c )
4006255f:	d0d311        	slli	a13, a3, 3
40062562:	0bdd      	addi.n	a13, a13, -1
40062564:	c02000        	memw
40062567:	d90c      	s32i.n	a13, a12, 0
40062569:	c181fd        	l32r	a12, 0x40061b70	; ( 0x3ffae290 )
4006256c:	dcd5      	bnez.n	a5, 0x4006258d
4006256e:	520c01        	l8ui	a5, a12, 1
40062571:	ccb5      	bnez.n	a5, 0x40062580
40062573:	510bff        	l32r	a5, 0x400621a0	; ( 0x90000000 )
40062576:	c02000        	memw
40062579:	5909      	s32i.n	a5, a9, 0
4006257b:	060800        	j	0x4006259f
4006257e to 4006257f  --------- Unknown territory !!!
40062580:	c109ff        	l32r	a12, 0x400621a4	; ( 0xb0000000 )
40062583:	0b55      	addi.n	a5, a5, -1
40062585:	c02000        	memw
40062588:	c909      	s32i.n	a12, a9, 0
4006258a:	060300        	j	0x4006259a
4006258d:	d105ff        	l32r	a13, 0x400621a4	; ( 0xb0000000 )
40062590:	c02000        	memw
40062593:	d909      	s32i.n	a13, a9, 0
40062595:	920c01        	l8ui	a9, a12, 1
40062598:	9a55      	add.n	a5, a5, a9
4006259a:	c02000        	memw
4006259d:	590a      	s32i.n	a5, a10, 0
4006259f:	920401        	l8ui	a9, a4, 1
400625a2:	5170fd        	l32r	a5, 0x40061b64	; ( 0x70000000 )
400625a5:	a14fab        	l32r	a10, 0x4004d2e4	; ( 0x00040000 )
400625a8:	509920        	or	a9, a9, a5
400625ab:	51fbfe        	l32r	a5, 0x40062198	; ( 0x3ff42024 )
400625ae:	c02000        	memw
400625b1:	9905      	s32i.n	a9, a5, 0
400625b3:	51fdfe        	l32r	a5, 0x400621a8	; ( 0x3ff42080 )
400625b6:	0c09      	movi.n	a9, 0
400625b8:	c02000        	memw
400625bb:	9905      	s32i.n	a9, a5, 0
400625bd:	91fbfe        	l32r	a9, 0x400621ac	; ( 0x3ff42000 )
400625c0:	c02000        	memw
400625c3:	a909      	s32i.n	a10, a9, 0
400625c5:	c02000        	memw
400625c8:	a809      	l32i.n	a10, a9, 0
400625ca:	567aff        	bnez	a10, 0x400625c5
400625cd:	c02000        	memw
400625d0:	5805      	l32i.n	a5, a5, 0
400625d2:	0b33      	addi.n	a3, a3, -1
400625d4:	5050f4        	extui	a5, a5, 0, 16
400625d7:	509074        	extui	a9, a5, 0, 8
400625da:	305983        	moveqz	a5, a9, a3
400625dd:	0c03      	movi.n	a3, 0
400625df:	37173e        	beq	a7, a3, 0x40062621
400625e2:	91effe        	l32r	a9, 0x400621a0	; ( 0x90000000 )
400625e5:	71eafe        	l32r	a7, 0x40062190	; ( 0x3ff4201c )
400625e8:	c02000        	memw
400625eb:	9907      	s32i.n	a9, a7, 0
400625ed:	920402        	l8ui	a9, a4, 2
400625f0:	715dfd        	l32r	a7, 0x40061b64	; ( 0x70000000 )
400625f3:	709920        	or	a9, a9, a7
400625f6:	71e8fe        	l32r	a7, 0x40062198	; ( 0x3ff42024 )
400625f9:	c02000        	memw
400625fc:	9907      	s32i.n	a9, a7, 0
400625fe:	71eafe        	l32r	a7, 0x400621a8	; ( 0x3ff42080 )
40062601:	9138ab        	l32r	a9, 0x4004d2e4	; ( 0x00040000 )
40062604:	c02000        	memw
40062607:	3907      	s32i.n	a3, a7, 0
40062609:	31e8fe        	l32r	a3, 0x400621ac	; ( 0x3ff42000 )
4006260c:	c02000        	memw
4006260f:	9903      	s32i.n	a9, a3, 0
40062611:	c02000        	memw
40062614:	9803      	l32i.n	a9, a3, 0
40062616:	5679ff        	bnez	a9, 0x40062611
40062619:	c02000        	memw
4006261c:	3807      	l32i.n	a3, a7, 0
4006261e:	303074        	extui	a3, a3, 0, 8
40062621:	803311        	slli	a3, a3, 8
40062624:	505320        	or	a5, a3, a5
40062627:	321403        	l16ui	a3, a4, 6
4006262a:	8ce6      	beqz.n	a6, 0x4006263c
4006262c:	571302        	beq	a3, a5, 0x40062632
4006262f:	221402        	l16ui	a2, a4, 4
40062632:	5801      	l32i.n	a5, a1, 0
40062634:	0c03      	movi.n	a3, 0
40062636:	502393        	movnez	a2, a3, a5
40062639:	061300        	j	0x40062689
4006263c:	621402        	l16ui	a6, a4, 4
4006263f:	305530        	xor	a5, a5, a3
40062642:	670543        	bnone	a5, a6, 0x40062689
40062645:	5187ff        	l32r	a5, 0x40062464	; ( 0x3ff42028 )
40062648:	d08811        	slli	a8, a8, 3
4006264b:	0b88      	addi.n	a8, a8, -1
4006264d:	c02000        	memw
40062650:	8905      	s32i.n	a8, a5, 0
40062652:	6185ff        	l32r	a6, 0x40062468	; ( 0x88000000 )
40062655:	51cefe        	l32r	a5, 0x40062190	; ( 0x3ff4201c )
40062658:	c02000        	memw
4006265b:	6905      	s32i.n	a6, a5, 0
4006265d:	520403        	l8ui	a5, a4, 3
40062660:	4141fd        	l32r	a4, 0x40061b64	; ( 0x70000000 )
40062663:	405520        	or	a5, a5, a4
40062666:	41ccfe        	l32r	a4, 0x40062198	; ( 0x3ff42024 )
40062669:	c02000        	memw
4006266c:	5904      	s32i.n	a5, a4, 0
4006266e:	41cefe        	l32r	a4, 0x400621a8	; ( 0x3ff42080 )
40062671:	c02000        	memw
40062674:	3904      	s32i.n	a3, a4, 0
40062676:	31cdfe        	l32r	a3, 0x400621ac	; ( 0x3ff42000 )
40062679:	411aab        	l32r	a4, 0x4004d2e4	; ( 0x00040000 )
4006267c:	c02000        	memw
4006267f:	4903      	s32i.n	a4, a3, 0
40062681:	c02000        	memw
40062684:	4803      	l32i.n	a4, a3, 0
40062686:	5674ff        	bnez	a4, 0x40062681
40062689:	9811      	l32i.n	a9, a1, 4
4006268b:	31c0fe        	l32r	a3, 0x4006218c	; ( 0x3ff42008 )
4006268e:	c02000        	memw
40062691:	9903      	s32i.n	a9, a3, 0
40062693:	31bffe        	l32r	a3, 0x40062190	; ( 0x3ff4201c )
40062696:	c02000        	memw
40062699:	e903      	s32i.n	a14, a3, 0
4006269b:	31befe        	l32r	a3, 0x40062194	; ( 0x3ff42020 )
4006269e:	c02000        	memw
400626a1:	b903      	s32i.n	a11, a3, 0
400626a3:	31bdfe        	l32r	a3, 0x40062198	; ( 0x3ff42024 )
400626a6:	c02000        	memw
400626a9:	f903      	s32i.n	a15, a3, 0
400626ab:	1df0      	retw.n
400626ad:	0c12      	movi.n	a2, 1
400626af:	1df0      	retw.n
400626b1:	8c53      	beqz.n	a3, 0x400626ba
400626b3:	0c08      	movi.n	a8, 0
400626b5:	7d08      	mov.n	a7, a8
400626b7:	0688ff        	j	0x400624db
400626ba:	1df0      	retw.n
400626bc:	3ff43034	; l32r
400626c0 to 400626db  --------- Unknown territory !!!
400626dc:	0fffffff	; l32r
400626e0 to 40062933  --------- Unknown territory !!!
40062934:	fe6f9fff	; l32r
40062938:	3ff43008	; l32r
4006293c:	3ff9bf24	; l32r
40062940:	3ffae284	; l32r
40062944:	366100        	entry	a1, 48
40062947:	515cfe        	l32r	a5, 0x400622b8	; ( 0x3ff420f8 )
4006294a:	303074        	extui	a3, a3, 0, 8
4006294d:	c02000        	memw
40062950:	422500        	l32i	a4, a5, 0
40062953:	404024        	extui	a4, a4, 0, 3
40062956:	5634ff        	bnez	a4, 0x4006294d
40062959:	5158fe        	l32r	a5, 0x400622bc	; ( 0x3ff430f8 )
4006295c:	c02000        	memw
4006295f:	4805      	l32i.n	a4, a5, 0
40062961:	404024        	extui	a4, a4, 0, 3
40062964:	5644ff        	bnez	a4, 0x4006295c
40062967:	5109fe        	l32r	a5, 0x4006218c	; ( 0x3ff42008 )
4006296a:	91f2ff        	l32r	a9, 0x40062934	; ( 0xfe6f9fff )
4006296d:	c02000        	memw
40062970:	8805      	l32i.n	a8, a5, 0
40062972:	908810        	and	a8, a8, a9
40062975:	c02000        	memw
40062978:	8905      	s32i.n	a8, a5, 0
4006297a:	81efff        	l32r	a8, 0x40062938	; ( 0x3ff43008 )
4006297d:	c02000        	memw
40062980:	a808      	l32i.n	a10, a8, 0
40062982:	909a10        	and	a9, a10, a9
40062985:	c02000        	memw
40062988:	9908      	s32i.n	a9, a8, 0
4006298a:	f66248        	bgeui	a2, 6, 0x400629d6
4006298d:	41ebff        	l32r	a4, 0x4006293c	; ( 0x3ff9bf24 )
40062990:	4042a0        	addx4	a4, a2, a4
40062993:	4804      	l32i.n	a4, a4, 0
40062995:	f6223d        	bgeui	a2, 2, 0x400629d6
40062998:	ad01      	mov.n	a10, a1
4006299a:	e5aaff        	call8	0x40062448
4006299d:	563a07        	bnez	a10, 0x40062a14
400629a0:	3801      	l32i.n	a3, a1, 0
400629a2:	22a200        	movi	a2, 0x200
400629a5:	37826b        	bany	a2, a3, 0x40062a14
400629a8:	c02000        	memw
400629ab:	8805      	l32i.n	a8, a5, 0
400629ad:	3104ce        	l32r	a3, 0x400561c0	; ( 0x00400000 )
400629b0:	303820        	or	a3, a8, a3
400629b3:	c02000        	memw
400629b6:	3905      	s32i.n	a3, a5, 0
400629b8:	51a3fe        	l32r	a5, 0x40062444	; ( 0x3ffae270 )
400629bb:	50a520        	or	a10, a5, a5
400629be:	2596ff        	call8	0x40062320
400629c1:	56fa04        	bnez	a10, 0x40062a14
400629c4:	a1dfff        	l32r	a10, 0x40062940	; ( 0x3ffae284 )
400629c7:	4bb1      	addi.n	a11, a1, 4
400629c9:	258aff        	call8	0x4006226c
400629cc:	b811      	l32i.n	a11, a1, 4
400629ce:	ad05      	mov.n	a10, a5
400629d0:	b0b220        	or	a11, a2, a11
400629d3:	860e00        	j	0x40062a11
400629d6:	bca3      	beqz.n	a3, 0x40062a14
400629d8:	10a120        	or	a10, a1, a1
400629db:	e5a6ff        	call8	0x40062448
400629de:	fc2a      	bnez.n	a10, 0x40062a14
400629e0:	2801      	l32i.n	a2, a1, 0
400629e2:	97622e        	bbci	a2, 9, 0x40062a14
400629e5:	21e9fd        	l32r	a2, 0x4006218c	; ( 0x3ff42008 )
400629e8:	51f6cd        	l32r	a5, 0x400561c0	; ( 0x00400000 )
400629eb:	c02000        	memw
400629ee:	8802      	l32i.n	a8, a2, 0
400629f0:	505820        	or	a5, a8, a5
400629f3:	c02000        	memw
400629f6:	526200        	s32i	a5, a2, 0
400629f9:	2192fe        	l32r	a2, 0x40062444	; ( 0x3ffae270 )
400629fc:	20a220        	or	a10, a2, a2
400629ff:	2592ff        	call8	0x40062320
40062a02:	ccea      	bnez.n	a10, 0x40062a14
40062a04:	a1cfff        	l32r	a10, 0x40062940	; ( 0x3ffae284 )
40062a07:	4bb1      	addi.n	a11, a1, 4
40062a09:	2586ff        	call8	0x4006226c
40062a0c:	b20104        	l8ui	a11, a1, 4
40062a0f:	ad02      	mov.n	a10, a2
40062a11:	e58dff        	call8	0x400622f0
40062a14:	21defd        	l32r	a2, 0x4006218c	; ( 0x3ff42008 )
40062a17:	ad04      	mov.n	a10, a4
40062a19:	c02000        	memw
40062a1c:	5802      	l32i.n	a5, a2, 0
40062a1e:	505420        	or	a5, a4, a5
40062a21:	c02000        	memw
40062a24:	5902      	s32i.n	a5, a2, 0
40062a26:	21c4ff        	l32r	a2, 0x40062938	; ( 0x3ff43008 )
40062a29:	c02000        	memw
40062a2c:	5802      	l32i.n	a5, a2, 0
40062a2e:	505420        	or	a5, a4, a5
40062a31:	c02000        	memw
40062a34:	5902      	s32i.n	a5, a2, 0
40062a36:	2515ff        	call8	0x40061b88
40062a39:	0c02      	movi.n	a2, 0
40062a3b:	1df0      	retw.n
40062a3d to 40062a3f  --------- Unknown territory !!!
40062a40:	3ff42018	; l32r
40062a44:	00003043	; l32r
40062a48:	3ff43018	; l32r
40062a4c:	00208000	; l32r
40062a50:	00200000	; l32r
40062a54:	3ff4302c	; l32r
40062a58:	3ff43028	; l32r
40062a5c:	3ff430fc	; l32r
40062a60:	3ff43050	; l32r
40062a64:	00100000	; l32r
40062a68:	3ff420fc	; l32r
40062a6c:	364100        	entry	a1, 32
40062a6f:	20a220        	or	a10, a2, a2
40062a72:	2551ff        	call8	0x40061f84
40062a75:	8111ff        	l32r	a8, 0x400626bc	; ( 0x3ff43034 )
40062a78:	7ce9      	movi.n	a9, -2
40062a7a:	c02000        	memw
40062a7d:	a808      	l32i.n	a10, a8, 0
40062a7f:	0c4b      	movi.n	a11, 4
40062a81:	909a10        	and	a9, a10, a9
40062a84:	c02000        	memw
40062a87:	9908      	s32i.n	a9, a8, 0
40062a89:	c02000        	memw
40062a8c:	a808      	l32i.n	a10, a8, 0
40062a8e:	0c29      	movi.n	a9, 2
40062a90:	909a20        	or	a9, a10, a9
40062a93:	c02000        	memw
40062a96:	9908      	s32i.n	a9, a8, 0
40062a98:	a2a000        	movi	a10, 0
40062a9b:	652fff        	call8	0x40061d90
40062a9e:	0c1a      	movi.n	a10, 1
40062aa0:	0c4b      	movi.n	a11, 4
40062aa2:	e52eff        	call8	0x40061d90
40062aa5:	81e7ff        	l32r	a8, 0x40062a44	; ( 0x00003043 )
40062aa8:	91e6ff        	l32r	a9, 0x40062a40	; ( 0x3ff42018 )
40062aab:	a1d0cd        	l32r	a10, 0x400561ec	; ( 0xff000000 )
40062aae:	c02000        	memw
40062ab1:	8909      	s32i.n	a8, a9, 0
40062ab3:	91e5ff        	l32r	a9, 0x40062a48	; ( 0x3ff43018 )
40062ab6:	303074        	extui	a3, a3, 0, 8
40062ab9:	c02000        	memw
40062abc:	8909      	s32i.n	a8, a9, 0
40062abe:	91e3ff        	l32r	a9, 0x40062a4c	; ( 0x00208000 )
40062ac1:	81b2fd        	l32r	a8, 0x4006218c	; ( 0x3ff42008 )
40062ac4:	c02000        	memw
40062ac7:	9908      	s32i.n	a9, a8, 0
40062ac9:	91e1ff        	l32r	a9, 0x40062a50	; ( 0x00200000 )
40062acc:	819bff        	l32r	a8, 0x40062938	; ( 0x3ff43008 )
40062acf:	c02000        	memw
40062ad2:	9908      	s32i.n	a9, a8, 0
40062ad4:	81e0ff        	l32r	a8, 0x40062a54	; ( 0x3ff4302c )
40062ad7:	92a0ff        	movi	a9, 255
40062ada:	c02000        	memw
40062add:	b808      	l32i.n	a11, a8, 0
40062adf:	a0bb10        	and	a11, a11, a10
40062ae2:	90bb20        	or	a11, a11, a9
40062ae5:	c02000        	memw
40062ae8:	b908      	s32i.n	a11, a8, 0
40062aea:	81dbff        	l32r	a8, 0x40062a58	; ( 0x3ff43028 )
40062aed:	c02000        	memw
40062af0:	b808      	l32i.n	a11, a8, 0
40062af2:	a0ab10        	and	a10, a11, a10
40062af5:	909a20        	or	a9, a10, a9
40062af8:	c02000        	memw
40062afb:	9908      	s32i.n	a9, a8, 0
40062afd:	811dfc        	l32r	a8, 0x40061b74	; ( 0x3ff43024 )
40062b00:	91f7fe        	l32r	a9, 0x400626dc	; ( 0x0fffffff )
40062b03:	c02000        	memw
40062b06:	a808      	l32i.n	a10, a8, 0
40062b08:	909a10        	and	a9, a10, a9
40062b0b:	a116fc        	l32r	a10, 0x40061b64	; ( 0x70000000 )
40062b0e:	a09920        	or	a9, a9, a10
40062b11:	c02000        	memw
40062b14:	9908      	s32i.n	a9, a8, 0
40062b16:	a2a000        	movi	a10, 0
40062b19:	e506ff        	call8	0x40061b88
40062b1c:	81d0ff        	l32r	a8, 0x40062a5c	; ( 0x3ff430fc )
40062b1f:	0c39      	movi.n	a9, 3
40062b21:	c02000        	memw
40062b24:	9908      	s32i.n	a9, a8, 0
40062b26:	81ceff        	l32r	a8, 0x40062a60	; ( 0x3ff43050 )
40062b29:	0c4a      	movi.n	a10, 4
40062b2b:	c02000        	memw
40062b2e:	b808      	l32i.n	a11, a8, 0
40062b30:	a0ab20        	or	a10, a11, a10
40062b33:	c02000        	memw
40062b36:	a908      	s32i.n	a10, a8, 0
40062b38:	a1cbff        	l32r	a10, 0x40062a64	; ( 0x00100000 )
40062b3b:	819cfd        	l32r	a8, 0x400621ac	; ( 0x3ff42000 )
40062b3e:	c02000        	memw
40062b41:	a26800        	s32i	a10, a8, 0
40062b44:	a1c9ff        	l32r	a10, 0x40062a68	; ( 0x3ff420fc )
40062b47:	c02000        	memw
40062b4a:	926a00        	s32i	a9, a10, 0
40062b4d:	c02000        	memw
40062b50:	9808      	l32i.n	a9, a8, 0
40062b52:	5679ff        	bnez	a9, 0x40062b4d
40062b55:	bd03      	mov.n	a11, a3
40062b57:	0c5a      	movi.n	a10, 5
40062b59:	a5deff        	call8	0x40062944
40062b5c:	1df0      	retw.n
40062b5e to 40062b5f  --------- Unknown territory !!!
40062b60:	3ff9bf0c	; l32r
40062b64:	364100        	entry	a1, 32
40062b67:	a137fe        	l32r	a10, 0x40062444	; ( 0x3ffae270 )
40062b6a:	6575ff        	call8	0x400622c0
40062b6d:	8187fd        	l32r	a8, 0x4006218c	; ( 0x3ff42008 )
40062b70:	a171ff        	l32r	a10, 0x40062934	; ( 0xfe6f9fff )
40062b73:	c02000        	memw
40062b76:	9808      	l32i.n	a9, a8, 0
40062b78:	a09910        	and	a9, a9, a10
40062b7b:	c02000        	memw
40062b7e:	9908      	s32i.n	a9, a8, 0
40062b80:	916eff        	l32r	a9, 0x40062938	; ( 0x3ff43008 )
40062b83:	c02000        	memw
40062b86:	b809      	l32i.n	a11, a9, 0
40062b88:	a0ab10        	and	a10, a11, a10
40062b8b:	c02000        	memw
40062b8e:	a909      	s32i.n	a10, a9, 0
40062b90:	0c0a      	movi.n	a10, 0
40062b92:	f66207        	bgeui	a2, 6, 0x40062b9d
40062b95:	91f2ff        	l32r	a9, 0x40062b60	; ( 0x3ff9bf0c )
40062b98:	9022a0        	addx4	a2, a2, a9
40062b9b:	a802      	l32i.n	a10, a2, 0
40062b9d:	c02000        	memw
40062ba0:	2808      	l32i.n	a2, a8, 0
40062ba2:	202a20        	or	a2, a10, a2
40062ba5:	c02000        	memw
40062ba8:	2908      	s32i.n	a2, a8, 0
40062baa:	2163ff        	l32r	a2, 0x40062938	; ( 0x3ff43008 )
40062bad:	c02000        	memw
40062bb0:	8802      	l32i.n	a8, a2, 0
40062bb2:	808a20        	or	a8, a10, a8
40062bb5:	c02000        	memw
40062bb8:	8902      	s32i.n	a8, a2, 0
40062bba:	e5fcfe        	call8	0x40061b88
40062bbd:	0c02      	movi.n	a2, 0
40062bbf:	1df0      	retw.n
40062bc1 to 40062bc3  --------- Unknown territory !!!
40062bc4:	0003ff43	; l32r
40062bc8:	364100        	entry	a1, 32
40062bcb:	a11efe        	l32r	a10, 0x40062444	; ( 0x3ffae270 )
40062bce:	202074        	extui	a2, a2, 0, 8
40062bd1:	303074        	extui	a3, a3, 0, 8
40062bd4:	a56eff        	call8	0x400622c0
40062bd7:	f62213        	bgeui	a2, 2, 0x40062bee
40062bda:	21faff        	l32r	a2, 0x40062bc4	; ( 0x0003ff43 )
40062bdd:	3032c0        	sub	a3, a2, a3
40062be0:	212dae        	l32r	a2, 0x4004e494	; ( 0x80000000 )
40062be3:	403311        	slli	a3, a3, 12
40062be6:	c02000        	memw
40062be9:	2963      	s32i.n	a2, a3, 24
40062beb:	060800        	j	0x40062c0f
40062bee:	0b82      	addi.n	a8, a2, -1
40062bf0:	202141        	srli	a2, a2, 1
40062bf3:	409811        	slli	a9, a8, 12
40062bf6:	0b22      	addi.n	a2, a2, -1
40062bf8:	a02211        	slli	a2, a2, 6
40062bfb:	808920        	or	a8, a9, a8
40062bfe:	208820        	or	a8, a8, a2
40062c01:	21f0ff        	l32r	a2, 0x40062bc4	; ( 0x0003ff43 )
40062c04:	3032c0        	sub	a3, a2, a3
40062c07:	403311        	slli	a3, a3, 12
40062c0a:	c02000        	memw
40062c0d:	8963      	s32i.n	a8, a3, 24
40062c0f:	0c02      	movi.n	a2, 0
40062c11:	1df0      	retw.n
40062c13 to 40062ebb  --------- Unknown territory !!!
40062ebc:	700000eb	; l32r
40062ec0:	700000bb	; l32r
40062ec4:	7000006b	; l32r
40062ec8:	7000003b	; l32r
40062ecc:	7000000b	; l32r
40062ed0:	70000003	; l32r
40062ed4:	3ff420c0	; l32r
40062ed8:	364100        	entry	a1, 32
40062edb:	51acfc        	l32r	a5, 0x4006218c	; ( 0x3ff42008 )
40062ede:	a11ffb        	l32r	a10, 0x40061b5c	; ( 0x01002000 )
40062ee1:	c02000        	memw
40062ee4:	6805      	l32i.n	a6, a5, 0
40062ee6:	910c64        	l32r	a9, 0x4003bf18	; ( 0xf7ffffff )
40062ee9:	a0b610        	and	a11, a6, a10
40062eec:	51a9fc        	l32r	a5, 0x40062190	; ( 0x3ff4201c )
40062eef:	8120fb        	l32r	a8, 0x40061b70	; ( 0x3ffae290 )
40062ef2:	a79b56        	bne	a11, a10, 0x40062f4c
40062ef5:	c02000        	memw
40062ef8:	6805      	l32i.n	a6, a5, 0
40062efa:	909610        	and	a9, a6, a9
40062efd:	c02000        	memw
40062f00:	9905      	s32i.n	a9, a5, 0
40062f02:	c02000        	memw
40062f05:	9805      	l32i.n	a9, a5, 0
40062f07:	6117fb        	l32r	a6, 0x40061b64	; ( 0x70000000 )
40062f0a:	606920        	or	a6, a9, a6
40062f0d:	c02000        	memw
40062f10:	6905      	s32i.n	a6, a5, 0
40062f12:	51a0fc        	l32r	a5, 0x40062194	; ( 0x3ff42020 )
40062f15:	61dc32        	l32r	a6, 0x4002fa88	; ( 0x03ffffff )
40062f18:	c02000        	memw
40062f1b:	9805      	l32i.n	a9, a5, 0
40062f1d:	606910        	and	a6, a9, a6
40062f20:	9113fb        	l32r	a9, 0x40061b6c	; ( 0x7c000000 )
40062f23:	906620        	or	a6, a6, a9
40062f26:	c02000        	memw
40062f29:	6905      	s32i.n	a6, a5, 0
40062f2b:	820801        	l8ui	a8, a8, 1
40062f2e:	c02000        	memw
40062f31:	9805      	l32i.n	a9, a5, 0
40062f33:	3b88      	addi.n	a8, a8, 3
40062f35:	62af00        	movi	a6, 0xffffff00
40062f38:	808074        	extui	a8, a8, 0, 8
40062f3b:	606910        	and	a6, a9, a6
40062f3e:	606820        	or	a6, a8, a6
40062f41:	c02000        	memw
40062f44:	6905      	s32i.n	a6, a5, 0
40062f46:	61ddff        	l32r	a6, 0x40062ebc	; ( 0x700000eb )
40062f49:	866100        	j	0x400630d3
40062f4c:	d7e602        	bbsi	a6, 13, 0x40062f52
40062f4f:	464200        	j	0x4006305c
40062f52:	c02000        	memw
40062f55:	a805      	l32i.n	a10, a5, 0
40062f57:	909a10        	and	a9, a10, a9
40062f5a:	c02000        	memw
40062f5d:	9905      	s32i.n	a9, a5, 0
40062f5f:	c02000        	memw
40062f62:	a805      	l32i.n	a10, a5, 0
40062f64:	9108fb        	l32r	a9, 0x40061b84	; ( 0x50000000 )
40062f67:	909a20        	or	a9, a10, a9
40062f6a:	c02000        	memw
40062f6d:	9905      	s32i.n	a9, a5, 0
40062f6f:	77f602        	bbsi	a6, 23, 0x40062f75
40062f72:	862000        	j	0x40062ff8
40062f75:	820801        	l8ui	a8, a8, 1
40062f78:	6187fc        	l32r	a6, 0x40062194	; ( 0x3ff42020 )
40062f7b:	eca8      	bnez.n	a8, 0x40062fa9
40062f7d:	c02000        	memw
40062f80:	9805      	l32i.n	a9, a5, 0
40062f82:	81fefa        	l32r	a8, 0x40061b7c	; ( 0xdfffffff )
40062f85:	808910        	and	a8, a9, a8
40062f88:	c02000        	memw
40062f8b:	8905      	s32i.n	a8, a5, 0
40062f8d:	c02000        	memw
40062f90:	8806      	l32i.n	a8, a6, 0
40062f92:	51bd32        	l32r	a5, 0x4002fa88	; ( 0x03ffffff )
40062f95:	505810        	and	a5, a8, a5
40062f98:	81f5fa        	l32r	a8, 0x40061b6c	; ( 0x7c000000 )
40062f9b:	805520        	or	a5, a5, a8
40062f9e:	c02000        	memw
40062fa1:	5906      	s32i.n	a5, a6, 0
40062fa3:	61c7ff        	l32r	a6, 0x40062ec0	; ( 0x700000bb )
40062fa6:	464a00        	j	0x400630d3
40062fa9:	c02000        	memw
40062fac:	a805      	l32i.n	a10, a5, 0
40062fae:	91f4fa        	l32r	a9, 0x40061b80	; ( 0x20000000 )
40062fb1:	0b88      	addi.n	a8, a8, -1
40062fb3:	909a20        	or	a9, a10, a9
40062fb6:	c02000        	memw
40062fb9:	9905      	s32i.n	a9, a5, 0
40062fbb:	c02000        	memw
40062fbe:	9806      	l32i.n	a9, a6, 0
40062fc0:	51b232        	l32r	a5, 0x4002fa88	; ( 0x03ffffff )
40062fc3:	505910        	and	a5, a9, a5
40062fc6:	91e9fa        	l32r	a9, 0x40061b6c	; ( 0x7c000000 )
40062fc9:	905520        	or	a5, a5, a9
40062fcc:	c02000        	memw
40062fcf:	5906      	s32i.n	a5, a6, 0
40062fd1:	c02000        	memw
40062fd4:	9806      	l32i.n	a9, a6, 0
40062fd6:	52af00        	movi	a5, 0xffffff00
40062fd9:	505910        	and	a5, a9, a5
40062fdc:	508820        	or	a8, a8, a5
40062fdf:	516efc        	l32r	a5, 0x40062198	; ( 0x3ff42024 )
40062fe2:	c02000        	memw
40062fe5:	8906      	s32i.n	a8, a6, 0
40062fe7:	c02000        	memw
40062fea:	8805      	l32i.n	a8, a5, 0
40062fec:	61c6ef        	l32r	a6, 0x4005ef04	; ( 0xffff0000 )
40062fef:	606810        	and	a6, a8, a6
40062ff2:	82a0bb        	movi	a8, 187
40062ff5:	c61600        	j	0x40063054
40062ff8:	5168fc        	l32r	a5, 0x40062198	; ( 0x3ff42024 )
40062ffb:	477605        	bbci	a6, 20, 0x40063004
40062ffe:	61b1ff        	l32r	a6, 0x40062ec4	; ( 0x7000006b )
40063001:	c60200        	j	0x40063010
40063004:	e76605        	bbci	a6, 14, 0x4006300d
40063007:	61b0ff        	l32r	a6, 0x40062ec8	; ( 0x7000003b )
4006300a:	860000        	j	0x40063010
4006300d:	61afff        	l32r	a6, 0x40062ecc	; ( 0x7000000b )
40063010:	c02000        	memw
40063013:	6905      	s32i.n	a6, a5, 0
40063015:	515efc        	l32r	a5, 0x40062190	; ( 0x3ff4201c )
40063018:	61dafa        	l32r	a6, 0x40061b80	; ( 0x20000000 )
4006301b:	c02000        	memw
4006301e:	9805      	l32i.n	a9, a5, 0
40063020:	606920        	or	a6, a9, a6
40063023:	c02000        	memw
40063026:	6905      	s32i.n	a6, a5, 0
40063028:	515bfc        	l32r	a5, 0x40062194	; ( 0x3ff42020 )
4006302b:	619732        	l32r	a6, 0x4002fa88	; ( 0x03ffffff )
4006302e:	c02000        	memw
40063031:	9805      	l32i.n	a9, a5, 0
40063033:	606910        	and	a6, a9, a6
40063036:	91d0fa        	l32r	a9, 0x40061b78	; ( 0x5c000000 )
40063039:	906620        	or	a6, a6, a9
4006303c:	c02000        	memw
4006303f:	6905      	s32i.n	a6, a5, 0
40063041:	820801        	l8ui	a8, a8, 1
40063044:	c02000        	memw
40063047:	9805      	l32i.n	a9, a5, 0
40063049:	7b88      	addi.n	a8, a8, 7
4006304b:	62af00        	movi	a6, 0xffffff00
4006304e:	808074        	extui	a8, a8, 0, 8
40063051:	606910        	and	a6, a9, a6
40063054:	606820        	or	a6, a8, a6
40063057:	c61e00        	j	0x400630d6
4006305a to 4006305b  --------- Unknown territory !!!
4006305c:	c02000        	memw
4006305f:	6805      	l32i.n	a6, a5, 0
40063061:	909610        	and	a9, a6, a9
40063064:	c02000        	memw
40063067:	9905      	s32i.n	a9, a5, 0
40063069:	620801        	l8ui	a6, a8, 1
4006306c:	ccc6      	bnez.n	a6, 0x4006307c
4006306e:	c02000        	memw
40063071:	8805      	l32i.n	a8, a5, 0
40063073:	61c2fa        	l32r	a6, 0x40061b7c	; ( 0xdfffffff )
40063076:	606810        	and	a6, a8, a6
40063079:	860800        	j	0x4006309f
4006307c:	c02000        	memw
4006307f:	9805      	l32i.n	a9, a5, 0
40063081:	81bffa        	l32r	a8, 0x40061b80	; ( 0x20000000 )
40063084:	0b66      	addi.n	a6, a6, -1
40063086:	808920        	or	a8, a9, a8
40063089:	c02000        	memw
4006308c:	8905      	s32i.n	a8, a5, 0
4006308e:	5141fc        	l32r	a5, 0x40062194	; ( 0x3ff42020 )
40063091:	82af00        	movi	a8, 0xffffff00
40063094:	c02000        	memw
40063097:	9805      	l32i.n	a9, a5, 0
40063099:	808910        	and	a8, a9, a8
4006309c:	806620        	or	a6, a6, a8
4006309f:	c02000        	memw
400630a2:	6905      	s32i.n	a6, a5, 0
400630a4:	513bfc        	l32r	a5, 0x40062190	; ( 0x3ff4201c )
400630a7:	61b7fa        	l32r	a6, 0x40061b84	; ( 0x50000000 )
400630aa:	c02000        	memw
400630ad:	8805      	l32i.n	a8, a5, 0
400630af:	606820        	or	a6, a8, a6
400630b2:	c02000        	memw
400630b5:	6905      	s32i.n	a6, a5, 0
400630b7:	5137fc        	l32r	a5, 0x40062194	; ( 0x3ff42020 )
400630ba:	617332        	l32r	a6, 0x4002fa88	; ( 0x03ffffff )
400630bd:	c02000        	memw
400630c0:	8805      	l32i.n	a8, a5, 0
400630c2:	606810        	and	a6, a8, a6
400630c5:	81acfa        	l32r	a8, 0x40061b78	; ( 0x5c000000 )
400630c8:	806620        	or	a6, a6, a8
400630cb:	c02000        	memw
400630ce:	6905      	s32i.n	a6, a5, 0
400630d0:	6180ff        	l32r	a6, 0x40062ed0	; ( 0x70000003 )
400630d3:	5131fc        	l32r	a5, 0x40062198	; ( 0x3ff42024 )
400630d6:	a1dbfc        	l32r	a10, 0x40062444	; ( 0x3ffae270 )
400630d9:	c02000        	memw
400630dc:	6905      	s32i.n	a6, a5, 0
400630de:	881a      	l32i.n	a8, a10, 4
400630e0:	4a62      	add.n	a6, a2, a4
400630e2:	0c15      	movi.n	a5, 1
400630e4:	67b802        	bgeu	a8, a6, 0x400630ea
400630e7:	862e00        	j	0x400631a5
400630ea:	651dff        	call8	0x400622c0
400630ed:	3cfd      	movi.n	a13, 63
400630ef:	912bfc        	l32r	a9, 0x4006219c	; ( 0x3ff4202c )
400630f2:	a199fc        	l32r	a10, 0x40062358	; ( 0x3ff42004 )
400630f5:	b2a1ff        	movi	a11, 0x1ff
400630f8:	c12dfc        	l32r	a12, 0x400621ac	; ( 0x3ff42000 )
400630fb:	862700        	j	0x4006319d
400630fe to 40063100  --------- Unknown territory !!!
40063101:	805211        	slli	a5, a2, 8
40063104:	47ad41        	bge	a13, a4, 0x40063149
40063107:	c02000        	memw
4006310a:	b909      	s32i.n	a11, a9, 0
4006310c:	c02000        	memw
4006310f:	590a      	s32i.n	a5, a10, 0
40063111:	6174a8        	l32r	a6, 0x4004d2e4	; ( 0x00040000 )
40063114:	5126fc        	l32r	a5, 0x400621ac	; ( 0x3ff42000 )
40063117:	c02000        	memw
4006311a:	6905      	s32i.n	a6, a5, 0
4006311c:	c02000        	memw
4006311f:	6805      	l32i.n	a6, a5, 0
40063121:	5676ff        	bnez	a6, 0x4006311c
40063124:	8121fc        	l32r	a8, 0x400621a8	; ( 0x3ff42080 )
40063127:	f16bff        	l32r	a15, 0x40062ed4	; ( 0x3ff420c0 )
4006312a:	e18cfc        	l32r	a14, 0x4006235c	; ( 0xc00bdf80 )
4006312d:	c02000        	memw
40063130:	6808      	l32i.n	a6, a8, 0
40063132:	8a53      	add.n	a5, a3, a8
40063134:	ea55      	add.n	a5, a5, a14
40063136:	6905      	s32i.n	a6, a5, 0
40063138:	4b88      	addi.n	a8, a8, 4
4006313a:	f798ec        	bne	a8, a15, 0x4006312a
4006313d:	32c340        	addi	a3, a3, 64
40063140:	42c4c0        	addi	a4, a4, -64
40063143:	22c240        	addi	a2, a2, 64
40063146:	c61400        	j	0x4006319d
40063149:	c02000        	memw
4006314c:	590a      	s32i.n	a5, a10, 0
4006314e:	2165a8        	l32r	a2, 0x4004d2e4	; ( 0x00040000 )
40063151:	c02000        	memw
40063154:	b909      	s32i.n	a11, a9, 0
40063156:	c02000        	memw
40063159:	226c00        	s32i	a2, a12, 0
4006315c:	c02000        	memw
4006315f:	280c      	l32i.n	a2, a12, 0
40063161:	5672ff        	bnez	a2, 0x4006315c
40063164:	402014        	extui	a2, a4, 0, 2
40063167:	404221        	srai	a4, a4, 2
4006316a:	cc22      	bnez.n	a2, 0x40063170
4006316c:	860000        	j	0x40063172
4006316f to 4006316f  --------- Unknown territory !!!
40063170:	1b44      	addi.n	a4, a4, 1
40063172:	404074        	extui	a4, a4, 0, 8
40063175:	0c02      	movi.n	a2, 0
40063177:	460600        	j	0x40063194
4006317a to 4006317b  --------- Unknown territory !!!
4006317c:	617afc        	l32r	a6, 0x40062364	; ( 0x0ffd0820 )
4006317f:	8177fc        	l32r	a8, 0x4006235c	; ( 0xc00bdf80 )
40063182:	6a52      	add.n	a5, a2, a6
40063184:	e05511        	slli	a5, a5, 2
40063187:	c02000        	memw
4006318a:	6805      	l32i.n	a6, a5, 0
4006318c:	8a55      	add.n	a5, a5, a8
4006318e:	5a53      	add.n	a5, a3, a5
40063190:	6905      	s32i.n	a6, a5, 0
40063192:	1b22      	addi.n	a2, a2, 1
40063194:	205074        	extui	a5, a2, 0, 8
40063197:	4735e1        	bltu	a5, a4, 0x4006317c
4006319a:	460100        	j	0x400631a3
4006319d:	a61402        	blti	a4, 1, 0x400631a3
400631a0:	46d7ff        	j	0x40063101
400631a3:	0c05      	movi.n	a5, 0
400631a5:	2d05      	mov.n	a2, a5
400631a7:	1df0      	retw.n
400631a9 to 4006ffff  --------- Unknown territory !!!

; disassembled 19568 bytes of 458752
